ARM GAS  C:\Users\HPz420\AppData\Local\Temp\cc4n98QM.s 			page 1


   1              		.syntax unified
   2              		.cpu cortex-m3
   3              		.fpu softvfp
   4              		.eabi_attribute 20, 1
   5              		.eabi_attribute 21, 1
   6              		.eabi_attribute 23, 3
   7              		.eabi_attribute 24, 1
   8              		.eabi_attribute 25, 1
   9              		.eabi_attribute 26, 1
  10              		.eabi_attribute 30, 1
  11              		.eabi_attribute 34, 1
  12              		.eabi_attribute 18, 4
  13              		.thumb
  14              		.syntax unified
  15              		.file	"I2C_1_SLAVE.c"
  16              		.text
  17              	.Ltext0:
  18              		.cfi_sections	.debug_frame
  19              		.section	.text.I2C_1_SlaveStatus,"ax",%progbits
  20              		.align	2
  21              		.global	I2C_1_SlaveStatus
  22              		.thumb
  23              		.thumb_func
  24              		.type	I2C_1_SlaveStatus, %function
  25              	I2C_1_SlaveStatus:
  26              	.LFB0:
  27              		.file 1 "Generated_Source\\PSoC5\\I2C_1_SLAVE.c"
   1:Generated_Source\PSoC5/I2C_1_SLAVE.c **** /*******************************************************************************
   2:Generated_Source\PSoC5/I2C_1_SLAVE.c **** * File Name: I2C_1_SLAVE.c
   3:Generated_Source\PSoC5/I2C_1_SLAVE.c **** * Version 3.50
   4:Generated_Source\PSoC5/I2C_1_SLAVE.c **** *
   5:Generated_Source\PSoC5/I2C_1_SLAVE.c **** * Description:
   6:Generated_Source\PSoC5/I2C_1_SLAVE.c **** *  This file provides the source code of APIs for the I2C component Slave mode.
   7:Generated_Source\PSoC5/I2C_1_SLAVE.c **** *
   8:Generated_Source\PSoC5/I2C_1_SLAVE.c **** * Note:
   9:Generated_Source\PSoC5/I2C_1_SLAVE.c **** *
  10:Generated_Source\PSoC5/I2C_1_SLAVE.c **** *******************************************************************************
  11:Generated_Source\PSoC5/I2C_1_SLAVE.c **** * Copyright 2012-2015, Cypress Semiconductor Corporation. All rights reserved.
  12:Generated_Source\PSoC5/I2C_1_SLAVE.c **** * You may use this file only in accordance with the license, terms, conditions,
  13:Generated_Source\PSoC5/I2C_1_SLAVE.c **** * disclaimers, and limitations in the end user license agreement accompanying
  14:Generated_Source\PSoC5/I2C_1_SLAVE.c **** * the software package with which this file was provided.
  15:Generated_Source\PSoC5/I2C_1_SLAVE.c **** *******************************************************************************/
  16:Generated_Source\PSoC5/I2C_1_SLAVE.c **** 
  17:Generated_Source\PSoC5/I2C_1_SLAVE.c **** #include "I2C_1_PVT.h"
  18:Generated_Source\PSoC5/I2C_1_SLAVE.c **** 
  19:Generated_Source\PSoC5/I2C_1_SLAVE.c **** #if (I2C_1_MODE_SLAVE_ENABLED)
  20:Generated_Source\PSoC5/I2C_1_SLAVE.c **** 
  21:Generated_Source\PSoC5/I2C_1_SLAVE.c **** /**********************************
  22:Generated_Source\PSoC5/I2C_1_SLAVE.c **** *      System variables
  23:Generated_Source\PSoC5/I2C_1_SLAVE.c **** **********************************/
  24:Generated_Source\PSoC5/I2C_1_SLAVE.c **** 
  25:Generated_Source\PSoC5/I2C_1_SLAVE.c **** volatile uint8 I2C_1_slStatus;   /* Slave Status  */
  26:Generated_Source\PSoC5/I2C_1_SLAVE.c **** 
  27:Generated_Source\PSoC5/I2C_1_SLAVE.c **** /* Transmit buffer variables */
  28:Generated_Source\PSoC5/I2C_1_SLAVE.c **** volatile uint8 * I2C_1_slRdBufPtr;   /* Pointer to Transmit buffer  */
  29:Generated_Source\PSoC5/I2C_1_SLAVE.c **** volatile uint8   I2C_1_slRdBufSize;  /* Slave Transmit buffer size  */
  30:Generated_Source\PSoC5/I2C_1_SLAVE.c **** volatile uint8   I2C_1_slRdBufIndex; /* Slave Transmit buffer Index */
ARM GAS  C:\Users\HPz420\AppData\Local\Temp\cc4n98QM.s 			page 2


  31:Generated_Source\PSoC5/I2C_1_SLAVE.c **** 
  32:Generated_Source\PSoC5/I2C_1_SLAVE.c **** /* Receive buffer variables */
  33:Generated_Source\PSoC5/I2C_1_SLAVE.c **** volatile uint8 * I2C_1_slWrBufPtr;   /* Pointer to Receive buffer  */
  34:Generated_Source\PSoC5/I2C_1_SLAVE.c **** volatile uint8   I2C_1_slWrBufSize;  /* Slave Receive buffer size  */
  35:Generated_Source\PSoC5/I2C_1_SLAVE.c **** volatile uint8   I2C_1_slWrBufIndex; /* Slave Receive buffer Index */
  36:Generated_Source\PSoC5/I2C_1_SLAVE.c **** 
  37:Generated_Source\PSoC5/I2C_1_SLAVE.c **** #if (I2C_1_SW_ADRR_DECODE)
  38:Generated_Source\PSoC5/I2C_1_SLAVE.c ****     volatile uint8 I2C_1_slAddress;  /* Software address variable */
  39:Generated_Source\PSoC5/I2C_1_SLAVE.c **** #endif /* (I2C_1_SW_ADRR_DECODE) */
  40:Generated_Source\PSoC5/I2C_1_SLAVE.c **** 
  41:Generated_Source\PSoC5/I2C_1_SLAVE.c **** 
  42:Generated_Source\PSoC5/I2C_1_SLAVE.c **** /*******************************************************************************
  43:Generated_Source\PSoC5/I2C_1_SLAVE.c **** * Function Name: I2C_1_SlaveStatus
  44:Generated_Source\PSoC5/I2C_1_SLAVE.c **** ********************************************************************************
  45:Generated_Source\PSoC5/I2C_1_SLAVE.c **** *
  46:Generated_Source\PSoC5/I2C_1_SLAVE.c **** * Summary:
  47:Generated_Source\PSoC5/I2C_1_SLAVE.c **** *  Returns I2C slave's communication status.
  48:Generated_Source\PSoC5/I2C_1_SLAVE.c **** *
  49:Generated_Source\PSoC5/I2C_1_SLAVE.c **** * Parameters:
  50:Generated_Source\PSoC5/I2C_1_SLAVE.c **** *  None.
  51:Generated_Source\PSoC5/I2C_1_SLAVE.c **** *
  52:Generated_Source\PSoC5/I2C_1_SLAVE.c **** * Return:
  53:Generated_Source\PSoC5/I2C_1_SLAVE.c **** *  Current status of I2C slave.
  54:Generated_Source\PSoC5/I2C_1_SLAVE.c **** *
  55:Generated_Source\PSoC5/I2C_1_SLAVE.c **** * Global variables:
  56:Generated_Source\PSoC5/I2C_1_SLAVE.c **** *  I2C_1_slStatus - The global variable used to store a current
  57:Generated_Source\PSoC5/I2C_1_SLAVE.c **** *                              status of the I2C slave.
  58:Generated_Source\PSoC5/I2C_1_SLAVE.c **** *
  59:Generated_Source\PSoC5/I2C_1_SLAVE.c **** *******************************************************************************/
  60:Generated_Source\PSoC5/I2C_1_SLAVE.c **** uint8 I2C_1_SlaveStatus(void) 
  61:Generated_Source\PSoC5/I2C_1_SLAVE.c **** {
  28              		.loc 1 61 0
  29              		.cfi_startproc
  30              		@ args = 0, pretend = 0, frame = 0
  31              		@ frame_needed = 0, uses_anonymous_args = 0
  32              		@ link register save eliminated.
  62:Generated_Source\PSoC5/I2C_1_SLAVE.c ****     return (I2C_1_slStatus);
  33              		.loc 1 62 0
  34 0000 014B     		ldr	r3, .L2
  35 0002 1878     		ldrb	r0, [r3]	@ zero_extendqisi2
  63:Generated_Source\PSoC5/I2C_1_SLAVE.c **** }
  36              		.loc 1 63 0
  37 0004 7047     		bx	lr
  38              	.L3:
  39 0006 00BF     		.align	2
  40              	.L2:
  41 0008 00000000 		.word	I2C_1_slStatus
  42              		.cfi_endproc
  43              	.LFE0:
  44              		.size	I2C_1_SlaveStatus, .-I2C_1_SlaveStatus
  45              		.section	.text.I2C_1_SlaveClearReadStatus,"ax",%progbits
  46              		.align	2
  47              		.global	I2C_1_SlaveClearReadStatus
  48              		.thumb
  49              		.thumb_func
  50              		.type	I2C_1_SlaveClearReadStatus, %function
  51              	I2C_1_SlaveClearReadStatus:
ARM GAS  C:\Users\HPz420\AppData\Local\Temp\cc4n98QM.s 			page 3


  52              	.LFB1:
  64:Generated_Source\PSoC5/I2C_1_SLAVE.c **** 
  65:Generated_Source\PSoC5/I2C_1_SLAVE.c **** 
  66:Generated_Source\PSoC5/I2C_1_SLAVE.c **** /*******************************************************************************
  67:Generated_Source\PSoC5/I2C_1_SLAVE.c **** * Function Name: I2C_1_SlaveClearReadStatus
  68:Generated_Source\PSoC5/I2C_1_SLAVE.c **** ********************************************************************************
  69:Generated_Source\PSoC5/I2C_1_SLAVE.c **** *
  70:Generated_Source\PSoC5/I2C_1_SLAVE.c **** * Summary:
  71:Generated_Source\PSoC5/I2C_1_SLAVE.c **** *  Clears the read status flags and returns they values.
  72:Generated_Source\PSoC5/I2C_1_SLAVE.c **** *  The I2C_1_SSTAT_RD_BUSY flag is not effected by clear.
  73:Generated_Source\PSoC5/I2C_1_SLAVE.c **** *
  74:Generated_Source\PSoC5/I2C_1_SLAVE.c **** * Parameters:
  75:Generated_Source\PSoC5/I2C_1_SLAVE.c **** *  None.
  76:Generated_Source\PSoC5/I2C_1_SLAVE.c **** *
  77:Generated_Source\PSoC5/I2C_1_SLAVE.c **** * Return:
  78:Generated_Source\PSoC5/I2C_1_SLAVE.c **** *  Current read status of I2C slave.
  79:Generated_Source\PSoC5/I2C_1_SLAVE.c **** *
  80:Generated_Source\PSoC5/I2C_1_SLAVE.c **** * Global variables:
  81:Generated_Source\PSoC5/I2C_1_SLAVE.c **** *  I2C_1_slStatus - The global variable used to store a current
  82:Generated_Source\PSoC5/I2C_1_SLAVE.c **** *                              status of the I2C slave.
  83:Generated_Source\PSoC5/I2C_1_SLAVE.c **** *
  84:Generated_Source\PSoC5/I2C_1_SLAVE.c **** * Reentrant:
  85:Generated_Source\PSoC5/I2C_1_SLAVE.c **** *  No.
  86:Generated_Source\PSoC5/I2C_1_SLAVE.c **** *
  87:Generated_Source\PSoC5/I2C_1_SLAVE.c **** *******************************************************************************/
  88:Generated_Source\PSoC5/I2C_1_SLAVE.c **** uint8 I2C_1_SlaveClearReadStatus(void) 
  89:Generated_Source\PSoC5/I2C_1_SLAVE.c **** {
  53              		.loc 1 89 0
  54              		.cfi_startproc
  55              		@ args = 0, pretend = 0, frame = 0
  56              		@ frame_needed = 0, uses_anonymous_args = 0
  57              		@ link register save eliminated.
  90:Generated_Source\PSoC5/I2C_1_SLAVE.c ****     uint8 status;
  91:Generated_Source\PSoC5/I2C_1_SLAVE.c **** 
  92:Generated_Source\PSoC5/I2C_1_SLAVE.c ****     I2C_1_DisableInt(); /* Lock from interrupt */
  58              		.loc 1 92 0
  59 0000 4FF40041 		mov	r1, #32768
  60 0004 064B     		ldr	r3, .L5
  61 0006 1960     		str	r1, [r3]
  93:Generated_Source\PSoC5/I2C_1_SLAVE.c **** 
  94:Generated_Source\PSoC5/I2C_1_SLAVE.c ****     /* Mask of transfer complete flag and Error status */
  95:Generated_Source\PSoC5/I2C_1_SLAVE.c ****     status = (I2C_1_slStatus & I2C_1_SSTAT_RD_MASK);
  62              		.loc 1 95 0
  63 0008 064B     		ldr	r3, .L5+4
  64 000a 1878     		ldrb	r0, [r3]	@ zero_extendqisi2
  65              	.LVL0:
  96:Generated_Source\PSoC5/I2C_1_SLAVE.c ****     I2C_1_slStatus &= (uint8) ~I2C_1_SSTAT_RD_CLEAR;
  66              		.loc 1 96 0
  67 000c 1A78     		ldrb	r2, [r3]	@ zero_extendqisi2
  68 000e 02F0F202 		and	r2, r2, #242
  69 0012 1A70     		strb	r2, [r3]
  97:Generated_Source\PSoC5/I2C_1_SLAVE.c **** 
  98:Generated_Source\PSoC5/I2C_1_SLAVE.c ****     I2C_1_EnableInt(); /* Release lock */
  70              		.loc 1 98 0
  71 0014 044B     		ldr	r3, .L5+8
  72 0016 1960     		str	r1, [r3]
  99:Generated_Source\PSoC5/I2C_1_SLAVE.c **** 
ARM GAS  C:\Users\HPz420\AppData\Local\Temp\cc4n98QM.s 			page 4


 100:Generated_Source\PSoC5/I2C_1_SLAVE.c ****     return (status);
 101:Generated_Source\PSoC5/I2C_1_SLAVE.c **** }
  73              		.loc 1 101 0
  74 0018 00F00F00 		and	r0, r0, #15
  75              	.LVL1:
  76 001c 7047     		bx	lr
  77              	.L6:
  78 001e 00BF     		.align	2
  79              	.L5:
  80 0020 80E100E0 		.word	-536813184
  81 0024 00000000 		.word	I2C_1_slStatus
  82 0028 00E100E0 		.word	-536813312
  83              		.cfi_endproc
  84              	.LFE1:
  85              		.size	I2C_1_SlaveClearReadStatus, .-I2C_1_SlaveClearReadStatus
  86              		.section	.text.I2C_1_SlaveClearWriteStatus,"ax",%progbits
  87              		.align	2
  88              		.global	I2C_1_SlaveClearWriteStatus
  89              		.thumb
  90              		.thumb_func
  91              		.type	I2C_1_SlaveClearWriteStatus, %function
  92              	I2C_1_SlaveClearWriteStatus:
  93              	.LFB2:
 102:Generated_Source\PSoC5/I2C_1_SLAVE.c **** 
 103:Generated_Source\PSoC5/I2C_1_SLAVE.c **** 
 104:Generated_Source\PSoC5/I2C_1_SLAVE.c **** /*******************************************************************************
 105:Generated_Source\PSoC5/I2C_1_SLAVE.c **** * Function Name: I2C_1_SlaveClearWriteStatus
 106:Generated_Source\PSoC5/I2C_1_SLAVE.c **** ********************************************************************************
 107:Generated_Source\PSoC5/I2C_1_SLAVE.c **** *
 108:Generated_Source\PSoC5/I2C_1_SLAVE.c **** * Summary:
 109:Generated_Source\PSoC5/I2C_1_SLAVE.c **** *  Clears the write status flags and returns they values.
 110:Generated_Source\PSoC5/I2C_1_SLAVE.c **** *  The I2C_1_SSTAT_WR_BUSY flag is not effected by clear.
 111:Generated_Source\PSoC5/I2C_1_SLAVE.c **** *
 112:Generated_Source\PSoC5/I2C_1_SLAVE.c **** * Parameters:
 113:Generated_Source\PSoC5/I2C_1_SLAVE.c **** *  None.
 114:Generated_Source\PSoC5/I2C_1_SLAVE.c **** *
 115:Generated_Source\PSoC5/I2C_1_SLAVE.c **** * Return:
 116:Generated_Source\PSoC5/I2C_1_SLAVE.c **** *  Current write status of I2C slave.
 117:Generated_Source\PSoC5/I2C_1_SLAVE.c **** *
 118:Generated_Source\PSoC5/I2C_1_SLAVE.c **** * Global variables:
 119:Generated_Source\PSoC5/I2C_1_SLAVE.c **** *  I2C_1_slStatus - The global variable used to store a current
 120:Generated_Source\PSoC5/I2C_1_SLAVE.c **** *                              status of the I2C slave.
 121:Generated_Source\PSoC5/I2C_1_SLAVE.c **** *
 122:Generated_Source\PSoC5/I2C_1_SLAVE.c **** * Reentrant:
 123:Generated_Source\PSoC5/I2C_1_SLAVE.c **** *  No.
 124:Generated_Source\PSoC5/I2C_1_SLAVE.c **** *
 125:Generated_Source\PSoC5/I2C_1_SLAVE.c **** *******************************************************************************/
 126:Generated_Source\PSoC5/I2C_1_SLAVE.c **** uint8 I2C_1_SlaveClearWriteStatus(void) 
 127:Generated_Source\PSoC5/I2C_1_SLAVE.c **** {
  94              		.loc 1 127 0
  95              		.cfi_startproc
  96              		@ args = 0, pretend = 0, frame = 0
  97              		@ frame_needed = 0, uses_anonymous_args = 0
  98              		@ link register save eliminated.
 128:Generated_Source\PSoC5/I2C_1_SLAVE.c ****     uint8 status;
 129:Generated_Source\PSoC5/I2C_1_SLAVE.c **** 
 130:Generated_Source\PSoC5/I2C_1_SLAVE.c ****     I2C_1_DisableInt(); /* Lock from interrupt */
ARM GAS  C:\Users\HPz420\AppData\Local\Temp\cc4n98QM.s 			page 5


  99              		.loc 1 130 0
 100 0000 4FF40041 		mov	r1, #32768
 101 0004 064B     		ldr	r3, .L8
 102 0006 1960     		str	r1, [r3]
 131:Generated_Source\PSoC5/I2C_1_SLAVE.c **** 
 132:Generated_Source\PSoC5/I2C_1_SLAVE.c ****     /* Mask of transfer complete flag and Error status */
 133:Generated_Source\PSoC5/I2C_1_SLAVE.c ****     status = (I2C_1_slStatus & I2C_1_SSTAT_WR_MASK);
 103              		.loc 1 133 0
 104 0008 064B     		ldr	r3, .L8+4
 105 000a 1878     		ldrb	r0, [r3]	@ zero_extendqisi2
 106              	.LVL2:
 134:Generated_Source\PSoC5/I2C_1_SLAVE.c ****     I2C_1_slStatus &= (uint8) ~I2C_1_SSTAT_WR_CLEAR;
 107              		.loc 1 134 0
 108 000c 1A78     		ldrb	r2, [r3]	@ zero_extendqisi2
 109 000e 02F02F02 		and	r2, r2, #47
 110 0012 1A70     		strb	r2, [r3]
 135:Generated_Source\PSoC5/I2C_1_SLAVE.c **** 
 136:Generated_Source\PSoC5/I2C_1_SLAVE.c ****     I2C_1_EnableInt(); /* Release lock */
 111              		.loc 1 136 0
 112 0014 044B     		ldr	r3, .L8+8
 113 0016 1960     		str	r1, [r3]
 137:Generated_Source\PSoC5/I2C_1_SLAVE.c **** 
 138:Generated_Source\PSoC5/I2C_1_SLAVE.c ****     return (status);
 139:Generated_Source\PSoC5/I2C_1_SLAVE.c **** }
 114              		.loc 1 139 0
 115 0018 00F0F000 		and	r0, r0, #240
 116              	.LVL3:
 117 001c 7047     		bx	lr
 118              	.L9:
 119 001e 00BF     		.align	2
 120              	.L8:
 121 0020 80E100E0 		.word	-536813184
 122 0024 00000000 		.word	I2C_1_slStatus
 123 0028 00E100E0 		.word	-536813312
 124              		.cfi_endproc
 125              	.LFE2:
 126              		.size	I2C_1_SlaveClearWriteStatus, .-I2C_1_SlaveClearWriteStatus
 127              		.section	.text.I2C_1_SlaveSetAddress,"ax",%progbits
 128              		.align	2
 129              		.global	I2C_1_SlaveSetAddress
 130              		.thumb
 131              		.thumb_func
 132              		.type	I2C_1_SlaveSetAddress, %function
 133              	I2C_1_SlaveSetAddress:
 134              	.LFB3:
 140:Generated_Source\PSoC5/I2C_1_SLAVE.c **** 
 141:Generated_Source\PSoC5/I2C_1_SLAVE.c **** 
 142:Generated_Source\PSoC5/I2C_1_SLAVE.c **** /*******************************************************************************
 143:Generated_Source\PSoC5/I2C_1_SLAVE.c **** * Function Name: I2C_1_SlaveSetAddress
 144:Generated_Source\PSoC5/I2C_1_SLAVE.c **** ********************************************************************************
 145:Generated_Source\PSoC5/I2C_1_SLAVE.c **** *
 146:Generated_Source\PSoC5/I2C_1_SLAVE.c **** * Summary:
 147:Generated_Source\PSoC5/I2C_1_SLAVE.c **** *  Sets the I2C slave address.
 148:Generated_Source\PSoC5/I2C_1_SLAVE.c **** *
 149:Generated_Source\PSoC5/I2C_1_SLAVE.c **** * Parameters:
 150:Generated_Source\PSoC5/I2C_1_SLAVE.c **** *  address: I2C slave address for the primary device. This value may be any
 151:Generated_Source\PSoC5/I2C_1_SLAVE.c **** *  address between 0 and 127.
ARM GAS  C:\Users\HPz420\AppData\Local\Temp\cc4n98QM.s 			page 6


 152:Generated_Source\PSoC5/I2C_1_SLAVE.c **** *
 153:Generated_Source\PSoC5/I2C_1_SLAVE.c **** * Return:
 154:Generated_Source\PSoC5/I2C_1_SLAVE.c **** *  None.
 155:Generated_Source\PSoC5/I2C_1_SLAVE.c **** *
 156:Generated_Source\PSoC5/I2C_1_SLAVE.c **** * Global variables:
 157:Generated_Source\PSoC5/I2C_1_SLAVE.c **** *  I2C_1_Address  - The global variable used to store an I2C slave
 158:Generated_Source\PSoC5/I2C_1_SLAVE.c **** *                              address for the primary device when the software
 159:Generated_Source\PSoC5/I2C_1_SLAVE.c **** *                              address detect feature is used.
 160:Generated_Source\PSoC5/I2C_1_SLAVE.c **** *
 161:Generated_Source\PSoC5/I2C_1_SLAVE.c **** * Reentrant:
 162:Generated_Source\PSoC5/I2C_1_SLAVE.c **** *  No.
 163:Generated_Source\PSoC5/I2C_1_SLAVE.c **** *
 164:Generated_Source\PSoC5/I2C_1_SLAVE.c **** *******************************************************************************/
 165:Generated_Source\PSoC5/I2C_1_SLAVE.c **** void I2C_1_SlaveSetAddress(uint8 address) 
 166:Generated_Source\PSoC5/I2C_1_SLAVE.c **** {
 135              		.loc 1 166 0
 136              		.cfi_startproc
 137              		@ args = 0, pretend = 0, frame = 0
 138              		@ frame_needed = 0, uses_anonymous_args = 0
 139              		@ link register save eliminated.
 140              	.LVL4:
 167:Generated_Source\PSoC5/I2C_1_SLAVE.c **** #if (I2C_1_SW_ADRR_DECODE)
 168:Generated_Source\PSoC5/I2C_1_SLAVE.c ****     I2C_1_slAddress = (address & I2C_1_SLAVE_ADDR_MASK);
 169:Generated_Source\PSoC5/I2C_1_SLAVE.c **** #else
 170:Generated_Source\PSoC5/I2C_1_SLAVE.c ****     I2C_1_ADDR_REG  = (address & I2C_1_SLAVE_ADDR_MASK);
 141              		.loc 1 170 0
 142 0000 00F07F00 		and	r0, r0, #127
 143              	.LVL5:
 144 0004 014B     		ldr	r3, .L11
 145 0006 1870     		strb	r0, [r3]
 146 0008 7047     		bx	lr
 147              	.L12:
 148 000a 00BF     		.align	2
 149              	.L11:
 150 000c CA490040 		.word	1073760714
 151              		.cfi_endproc
 152              	.LFE3:
 153              		.size	I2C_1_SlaveSetAddress, .-I2C_1_SlaveSetAddress
 154              		.section	.text.I2C_1_SlaveInitReadBuf,"ax",%progbits
 155              		.align	2
 156              		.global	I2C_1_SlaveInitReadBuf
 157              		.thumb
 158              		.thumb_func
 159              		.type	I2C_1_SlaveInitReadBuf, %function
 160              	I2C_1_SlaveInitReadBuf:
 161              	.LFB4:
 171:Generated_Source\PSoC5/I2C_1_SLAVE.c **** #endif /* (I2C_1_SW_ADRR_DECODE) */
 172:Generated_Source\PSoC5/I2C_1_SLAVE.c **** }
 173:Generated_Source\PSoC5/I2C_1_SLAVE.c **** 
 174:Generated_Source\PSoC5/I2C_1_SLAVE.c **** 
 175:Generated_Source\PSoC5/I2C_1_SLAVE.c **** /*******************************************************************************
 176:Generated_Source\PSoC5/I2C_1_SLAVE.c **** * Function Name: I2C_1_SlaveInitReadBuf
 177:Generated_Source\PSoC5/I2C_1_SLAVE.c **** ********************************************************************************
 178:Generated_Source\PSoC5/I2C_1_SLAVE.c **** *
 179:Generated_Source\PSoC5/I2C_1_SLAVE.c **** * Summary:
 180:Generated_Source\PSoC5/I2C_1_SLAVE.c **** *  Sets the buffer pointer and size of the read buffer. This function also
 181:Generated_Source\PSoC5/I2C_1_SLAVE.c **** *  resets the transfer count returned with the I2C_SlaveGetReadBufSize function.
ARM GAS  C:\Users\HPz420\AppData\Local\Temp\cc4n98QM.s 			page 7


 182:Generated_Source\PSoC5/I2C_1_SLAVE.c **** *
 183:Generated_Source\PSoC5/I2C_1_SLAVE.c **** * Parameters:
 184:Generated_Source\PSoC5/I2C_1_SLAVE.c **** *  readBuf:  Pointer to the data buffer to be read by the master.
 185:Generated_Source\PSoC5/I2C_1_SLAVE.c **** *  bufSize:  Size of the read buffer exposed to the I2C master.
 186:Generated_Source\PSoC5/I2C_1_SLAVE.c **** *
 187:Generated_Source\PSoC5/I2C_1_SLAVE.c **** * Return:
 188:Generated_Source\PSoC5/I2C_1_SLAVE.c **** *  None.
 189:Generated_Source\PSoC5/I2C_1_SLAVE.c **** *
 190:Generated_Source\PSoC5/I2C_1_SLAVE.c **** * Global variables:
 191:Generated_Source\PSoC5/I2C_1_SLAVE.c **** *  I2C_1_slRdBufPtr   - The global variable used to store a pointer
 192:Generated_Source\PSoC5/I2C_1_SLAVE.c **** *                                  to the slave read buffer.
 193:Generated_Source\PSoC5/I2C_1_SLAVE.c **** *  I2C_1_slRdBufSize  - The global variable used to store a slave
 194:Generated_Source\PSoC5/I2C_1_SLAVE.c **** *                                  read buffer size.
 195:Generated_Source\PSoC5/I2C_1_SLAVE.c **** *  I2C_1_slRdBufIndex - The global variable used to store a current
 196:Generated_Source\PSoC5/I2C_1_SLAVE.c **** *                                  index within the slave read buffer.
 197:Generated_Source\PSoC5/I2C_1_SLAVE.c **** *
 198:Generated_Source\PSoC5/I2C_1_SLAVE.c **** * Side Effects:
 199:Generated_Source\PSoC5/I2C_1_SLAVE.c **** *  If this function is called during a bus transaction, data from the previous
 200:Generated_Source\PSoC5/I2C_1_SLAVE.c **** *  buffer location and the beginning of the current buffer may be transmitted.
 201:Generated_Source\PSoC5/I2C_1_SLAVE.c **** *
 202:Generated_Source\PSoC5/I2C_1_SLAVE.c **** * Reentrant:
 203:Generated_Source\PSoC5/I2C_1_SLAVE.c **** *  No.
 204:Generated_Source\PSoC5/I2C_1_SLAVE.c **** *
 205:Generated_Source\PSoC5/I2C_1_SLAVE.c **** *******************************************************************************/
 206:Generated_Source\PSoC5/I2C_1_SLAVE.c **** void I2C_1_SlaveInitReadBuf(uint8 * rdBuf, uint8 bufSize)
 207:Generated_Source\PSoC5/I2C_1_SLAVE.c ****      
 208:Generated_Source\PSoC5/I2C_1_SLAVE.c **** {
 162              		.loc 1 208 0
 163              		.cfi_startproc
 164              		@ args = 0, pretend = 0, frame = 0
 165              		@ frame_needed = 0, uses_anonymous_args = 0
 166              		@ link register save eliminated.
 167              	.LVL6:
 209:Generated_Source\PSoC5/I2C_1_SLAVE.c ****     if (NULL != rdBuf)
 168              		.loc 1 209 0
 169 0000 0246     		mov	r2, r0
 170 0002 60B1     		cbz	r0, .L13
 210:Generated_Source\PSoC5/I2C_1_SLAVE.c ****     {
 211:Generated_Source\PSoC5/I2C_1_SLAVE.c ****         I2C_1_DisableInt(); /* Lock from interrupt */
 171              		.loc 1 211 0
 172 0004 4FF40043 		mov	r3, #32768
 173 0008 0548     		ldr	r0, .L15
 174              	.LVL7:
 175 000a 0360     		str	r3, [r0]
 212:Generated_Source\PSoC5/I2C_1_SLAVE.c **** 
 213:Generated_Source\PSoC5/I2C_1_SLAVE.c ****         /* Set buffer pointer */
 214:Generated_Source\PSoC5/I2C_1_SLAVE.c ****         I2C_1_slRdBufPtr   = (volatile uint8 *) rdBuf;
 176              		.loc 1 214 0
 177 000c 0548     		ldr	r0, .L15+4
 178 000e 0260     		str	r2, [r0]
 215:Generated_Source\PSoC5/I2C_1_SLAVE.c ****         I2C_1_slRdBufSize  = bufSize;    /* Set buffer size     */
 179              		.loc 1 215 0
 180 0010 054A     		ldr	r2, .L15+8
 181              	.LVL8:
 182 0012 1170     		strb	r1, [r2]
 216:Generated_Source\PSoC5/I2C_1_SLAVE.c ****         I2C_1_slRdBufIndex = 0u;         /* Clears buffer index */
 183              		.loc 1 216 0
ARM GAS  C:\Users\HPz420\AppData\Local\Temp\cc4n98QM.s 			page 8


 184 0014 0021     		movs	r1, #0
 185              	.LVL9:
 186 0016 054A     		ldr	r2, .L15+12
 187 0018 1170     		strb	r1, [r2]
 188              	.LVL10:
 217:Generated_Source\PSoC5/I2C_1_SLAVE.c **** 
 218:Generated_Source\PSoC5/I2C_1_SLAVE.c ****         I2C_1_EnableInt(); /* Release lock */
 189              		.loc 1 218 0
 190 001a 054A     		ldr	r2, .L15+16
 191 001c 1360     		str	r3, [r2]
 192              	.LVL11:
 193              	.L13:
 194 001e 7047     		bx	lr
 195              	.L16:
 196              		.align	2
 197              	.L15:
 198 0020 80E100E0 		.word	-536813184
 199 0024 00000000 		.word	I2C_1_slRdBufPtr
 200 0028 00000000 		.word	I2C_1_slRdBufSize
 201 002c 00000000 		.word	I2C_1_slRdBufIndex
 202 0030 00E100E0 		.word	-536813312
 203              		.cfi_endproc
 204              	.LFE4:
 205              		.size	I2C_1_SlaveInitReadBuf, .-I2C_1_SlaveInitReadBuf
 206              		.section	.text.I2C_1_SlaveInitWriteBuf,"ax",%progbits
 207              		.align	2
 208              		.global	I2C_1_SlaveInitWriteBuf
 209              		.thumb
 210              		.thumb_func
 211              		.type	I2C_1_SlaveInitWriteBuf, %function
 212              	I2C_1_SlaveInitWriteBuf:
 213              	.LFB5:
 219:Generated_Source\PSoC5/I2C_1_SLAVE.c ****     }
 220:Generated_Source\PSoC5/I2C_1_SLAVE.c **** }
 221:Generated_Source\PSoC5/I2C_1_SLAVE.c **** 
 222:Generated_Source\PSoC5/I2C_1_SLAVE.c **** 
 223:Generated_Source\PSoC5/I2C_1_SLAVE.c **** /*******************************************************************************
 224:Generated_Source\PSoC5/I2C_1_SLAVE.c **** * Function Name: I2C_1_SlaveInitWriteBuf
 225:Generated_Source\PSoC5/I2C_1_SLAVE.c **** ********************************************************************************
 226:Generated_Source\PSoC5/I2C_1_SLAVE.c **** *
 227:Generated_Source\PSoC5/I2C_1_SLAVE.c **** * Summary:
 228:Generated_Source\PSoC5/I2C_1_SLAVE.c **** *  Sets the buffer pointer and size of the read buffer. This function also
 229:Generated_Source\PSoC5/I2C_1_SLAVE.c **** *  resets the transfer count returned with the I2C_SlaveGetReadBufSize function.
 230:Generated_Source\PSoC5/I2C_1_SLAVE.c **** *
 231:Generated_Source\PSoC5/I2C_1_SLAVE.c **** * Parameters:
 232:Generated_Source\PSoC5/I2C_1_SLAVE.c **** *  writeBuf:  Pointer to the data buffer to be read by the master.
 233:Generated_Source\PSoC5/I2C_1_SLAVE.c **** *  bufSize:  Size of the buffer exposed to the I2C master.
 234:Generated_Source\PSoC5/I2C_1_SLAVE.c **** *
 235:Generated_Source\PSoC5/I2C_1_SLAVE.c **** * Return:
 236:Generated_Source\PSoC5/I2C_1_SLAVE.c **** *  None.
 237:Generated_Source\PSoC5/I2C_1_SLAVE.c **** *
 238:Generated_Source\PSoC5/I2C_1_SLAVE.c **** * Global variables:
 239:Generated_Source\PSoC5/I2C_1_SLAVE.c **** *  I2C_1_slWrBufPtr   - The global variable used to store a pointer
 240:Generated_Source\PSoC5/I2C_1_SLAVE.c **** *                                  to the slave write buffer.
 241:Generated_Source\PSoC5/I2C_1_SLAVE.c **** *  I2C_1_slWrBufSize  - The global variable used to store a slave
 242:Generated_Source\PSoC5/I2C_1_SLAVE.c **** *                                  write buffer size.
 243:Generated_Source\PSoC5/I2C_1_SLAVE.c **** *  I2C_1_slWrBufIndex - The global variable used to store a current
ARM GAS  C:\Users\HPz420\AppData\Local\Temp\cc4n98QM.s 			page 9


 244:Generated_Source\PSoC5/I2C_1_SLAVE.c **** *                                  index within the slave write buffer.
 245:Generated_Source\PSoC5/I2C_1_SLAVE.c **** *
 246:Generated_Source\PSoC5/I2C_1_SLAVE.c **** * Side Effects:
 247:Generated_Source\PSoC5/I2C_1_SLAVE.c **** *  If this function is called during a bus transaction, data from the previous
 248:Generated_Source\PSoC5/I2C_1_SLAVE.c **** *  buffer location and the beginning of the current buffer may be transmitted.
 249:Generated_Source\PSoC5/I2C_1_SLAVE.c **** *
 250:Generated_Source\PSoC5/I2C_1_SLAVE.c **** * Reentrant:
 251:Generated_Source\PSoC5/I2C_1_SLAVE.c **** *  No.
 252:Generated_Source\PSoC5/I2C_1_SLAVE.c **** *
 253:Generated_Source\PSoC5/I2C_1_SLAVE.c **** *******************************************************************************/
 254:Generated_Source\PSoC5/I2C_1_SLAVE.c **** void I2C_1_SlaveInitWriteBuf(uint8 * wrBuf, uint8 bufSize)
 255:Generated_Source\PSoC5/I2C_1_SLAVE.c ****      
 256:Generated_Source\PSoC5/I2C_1_SLAVE.c **** {
 214              		.loc 1 256 0
 215              		.cfi_startproc
 216              		@ args = 0, pretend = 0, frame = 0
 217              		@ frame_needed = 0, uses_anonymous_args = 0
 218              		@ link register save eliminated.
 219              	.LVL12:
 257:Generated_Source\PSoC5/I2C_1_SLAVE.c ****     if (NULL != wrBuf)
 220              		.loc 1 257 0
 221 0000 0246     		mov	r2, r0
 222 0002 60B1     		cbz	r0, .L17
 258:Generated_Source\PSoC5/I2C_1_SLAVE.c ****     {
 259:Generated_Source\PSoC5/I2C_1_SLAVE.c ****         I2C_1_DisableInt(); /* Lock from interrupt */
 223              		.loc 1 259 0
 224 0004 4FF40043 		mov	r3, #32768
 225 0008 0548     		ldr	r0, .L19
 226              	.LVL13:
 227 000a 0360     		str	r3, [r0]
 260:Generated_Source\PSoC5/I2C_1_SLAVE.c **** 
 261:Generated_Source\PSoC5/I2C_1_SLAVE.c ****          /* Set buffer pointer */
 262:Generated_Source\PSoC5/I2C_1_SLAVE.c ****         I2C_1_slWrBufPtr   = (volatile uint8 *) wrBuf;
 228              		.loc 1 262 0
 229 000c 0548     		ldr	r0, .L19+4
 230 000e 0260     		str	r2, [r0]
 263:Generated_Source\PSoC5/I2C_1_SLAVE.c ****         I2C_1_slWrBufSize  = bufSize;    /* Set buffer size     */
 231              		.loc 1 263 0
 232 0010 054A     		ldr	r2, .L19+8
 233              	.LVL14:
 234 0012 1170     		strb	r1, [r2]
 264:Generated_Source\PSoC5/I2C_1_SLAVE.c ****         I2C_1_slWrBufIndex = 0u;         /* Clears buffer index */
 235              		.loc 1 264 0
 236 0014 0021     		movs	r1, #0
 237              	.LVL15:
 238 0016 054A     		ldr	r2, .L19+12
 239 0018 1170     		strb	r1, [r2]
 240              	.LVL16:
 265:Generated_Source\PSoC5/I2C_1_SLAVE.c **** 
 266:Generated_Source\PSoC5/I2C_1_SLAVE.c ****         I2C_1_EnableInt(); /* Release lock */
 241              		.loc 1 266 0
 242 001a 054A     		ldr	r2, .L19+16
 243 001c 1360     		str	r3, [r2]
 244              	.LVL17:
 245              	.L17:
 246 001e 7047     		bx	lr
 247              	.L20:
ARM GAS  C:\Users\HPz420\AppData\Local\Temp\cc4n98QM.s 			page 10


 248              		.align	2
 249              	.L19:
 250 0020 80E100E0 		.word	-536813184
 251 0024 00000000 		.word	I2C_1_slWrBufPtr
 252 0028 00000000 		.word	I2C_1_slWrBufSize
 253 002c 00000000 		.word	I2C_1_slWrBufIndex
 254 0030 00E100E0 		.word	-536813312
 255              		.cfi_endproc
 256              	.LFE5:
 257              		.size	I2C_1_SlaveInitWriteBuf, .-I2C_1_SlaveInitWriteBuf
 258              		.section	.text.I2C_1_SlaveGetReadBufSize,"ax",%progbits
 259              		.align	2
 260              		.global	I2C_1_SlaveGetReadBufSize
 261              		.thumb
 262              		.thumb_func
 263              		.type	I2C_1_SlaveGetReadBufSize, %function
 264              	I2C_1_SlaveGetReadBufSize:
 265              	.LFB6:
 267:Generated_Source\PSoC5/I2C_1_SLAVE.c ****     }
 268:Generated_Source\PSoC5/I2C_1_SLAVE.c **** }
 269:Generated_Source\PSoC5/I2C_1_SLAVE.c **** 
 270:Generated_Source\PSoC5/I2C_1_SLAVE.c **** 
 271:Generated_Source\PSoC5/I2C_1_SLAVE.c **** /*******************************************************************************
 272:Generated_Source\PSoC5/I2C_1_SLAVE.c **** * Function Name: I2C_1_SlaveGetReadBufSize
 273:Generated_Source\PSoC5/I2C_1_SLAVE.c **** ********************************************************************************
 274:Generated_Source\PSoC5/I2C_1_SLAVE.c **** *
 275:Generated_Source\PSoC5/I2C_1_SLAVE.c **** * Summary:
 276:Generated_Source\PSoC5/I2C_1_SLAVE.c **** *  Returns the number of bytes read by the I2C master since an
 277:Generated_Source\PSoC5/I2C_1_SLAVE.c **** *  I2C_SlaveInitReadBuf or I2C_SlaveClearReadBuf function was executed.
 278:Generated_Source\PSoC5/I2C_1_SLAVE.c **** *  The maximum return value will be the size of the read buffer.
 279:Generated_Source\PSoC5/I2C_1_SLAVE.c **** *
 280:Generated_Source\PSoC5/I2C_1_SLAVE.c **** * Parameters:
 281:Generated_Source\PSoC5/I2C_1_SLAVE.c **** *  None.
 282:Generated_Source\PSoC5/I2C_1_SLAVE.c **** *
 283:Generated_Source\PSoC5/I2C_1_SLAVE.c **** * Return:
 284:Generated_Source\PSoC5/I2C_1_SLAVE.c **** *  Bytes read by master.
 285:Generated_Source\PSoC5/I2C_1_SLAVE.c **** *
 286:Generated_Source\PSoC5/I2C_1_SLAVE.c **** * Global variables:
 287:Generated_Source\PSoC5/I2C_1_SLAVE.c **** *  I2C_1_slRdBufIndex - The global variable used to store a current
 288:Generated_Source\PSoC5/I2C_1_SLAVE.c **** *                                  index within the slave read buffer.
 289:Generated_Source\PSoC5/I2C_1_SLAVE.c **** *
 290:Generated_Source\PSoC5/I2C_1_SLAVE.c **** *******************************************************************************/
 291:Generated_Source\PSoC5/I2C_1_SLAVE.c **** uint8 I2C_1_SlaveGetReadBufSize(void) 
 292:Generated_Source\PSoC5/I2C_1_SLAVE.c **** {
 266              		.loc 1 292 0
 267              		.cfi_startproc
 268              		@ args = 0, pretend = 0, frame = 0
 269              		@ frame_needed = 0, uses_anonymous_args = 0
 270              		@ link register save eliminated.
 293:Generated_Source\PSoC5/I2C_1_SLAVE.c ****     return (I2C_1_slRdBufIndex);
 271              		.loc 1 293 0
 272 0000 014B     		ldr	r3, .L22
 273 0002 1878     		ldrb	r0, [r3]	@ zero_extendqisi2
 294:Generated_Source\PSoC5/I2C_1_SLAVE.c **** }
 274              		.loc 1 294 0
 275 0004 7047     		bx	lr
 276              	.L23:
ARM GAS  C:\Users\HPz420\AppData\Local\Temp\cc4n98QM.s 			page 11


 277 0006 00BF     		.align	2
 278              	.L22:
 279 0008 00000000 		.word	I2C_1_slRdBufIndex
 280              		.cfi_endproc
 281              	.LFE6:
 282              		.size	I2C_1_SlaveGetReadBufSize, .-I2C_1_SlaveGetReadBufSize
 283              		.section	.text.I2C_1_SlaveGetWriteBufSize,"ax",%progbits
 284              		.align	2
 285              		.global	I2C_1_SlaveGetWriteBufSize
 286              		.thumb
 287              		.thumb_func
 288              		.type	I2C_1_SlaveGetWriteBufSize, %function
 289              	I2C_1_SlaveGetWriteBufSize:
 290              	.LFB7:
 295:Generated_Source\PSoC5/I2C_1_SLAVE.c **** 
 296:Generated_Source\PSoC5/I2C_1_SLAVE.c **** 
 297:Generated_Source\PSoC5/I2C_1_SLAVE.c **** /*******************************************************************************
 298:Generated_Source\PSoC5/I2C_1_SLAVE.c **** * Function Name: I2C_1_SlaveGetWriteBufSize
 299:Generated_Source\PSoC5/I2C_1_SLAVE.c **** ********************************************************************************
 300:Generated_Source\PSoC5/I2C_1_SLAVE.c **** *
 301:Generated_Source\PSoC5/I2C_1_SLAVE.c **** * Summary:
 302:Generated_Source\PSoC5/I2C_1_SLAVE.c **** *  Returns the number of bytes written by the I2C master since an
 303:Generated_Source\PSoC5/I2C_1_SLAVE.c **** *  I2C_SlaveInitWriteBuf or I2C_SlaveClearWriteBuf function was executed.
 304:Generated_Source\PSoC5/I2C_1_SLAVE.c **** *  The maximum return value will be the size of the write buffer.
 305:Generated_Source\PSoC5/I2C_1_SLAVE.c **** *
 306:Generated_Source\PSoC5/I2C_1_SLAVE.c **** * Parameters:
 307:Generated_Source\PSoC5/I2C_1_SLAVE.c **** *  None.
 308:Generated_Source\PSoC5/I2C_1_SLAVE.c **** *
 309:Generated_Source\PSoC5/I2C_1_SLAVE.c **** * Return:
 310:Generated_Source\PSoC5/I2C_1_SLAVE.c **** *  Bytes written by master.
 311:Generated_Source\PSoC5/I2C_1_SLAVE.c **** *
 312:Generated_Source\PSoC5/I2C_1_SLAVE.c **** * Global variables:
 313:Generated_Source\PSoC5/I2C_1_SLAVE.c **** *  I2C_1_slWrBufIndex - The global variable used to store a current
 314:Generated_Source\PSoC5/I2C_1_SLAVE.c **** *                                  index within the slave write buffer.
 315:Generated_Source\PSoC5/I2C_1_SLAVE.c **** *
 316:Generated_Source\PSoC5/I2C_1_SLAVE.c **** *******************************************************************************/
 317:Generated_Source\PSoC5/I2C_1_SLAVE.c **** uint8 I2C_1_SlaveGetWriteBufSize(void) 
 318:Generated_Source\PSoC5/I2C_1_SLAVE.c **** {
 291              		.loc 1 318 0
 292              		.cfi_startproc
 293              		@ args = 0, pretend = 0, frame = 0
 294              		@ frame_needed = 0, uses_anonymous_args = 0
 295              		@ link register save eliminated.
 319:Generated_Source\PSoC5/I2C_1_SLAVE.c ****     return (I2C_1_slWrBufIndex);
 296              		.loc 1 319 0
 297 0000 014B     		ldr	r3, .L25
 298 0002 1878     		ldrb	r0, [r3]	@ zero_extendqisi2
 320:Generated_Source\PSoC5/I2C_1_SLAVE.c **** }
 299              		.loc 1 320 0
 300 0004 7047     		bx	lr
 301              	.L26:
 302 0006 00BF     		.align	2
 303              	.L25:
 304 0008 00000000 		.word	I2C_1_slWrBufIndex
 305              		.cfi_endproc
 306              	.LFE7:
 307              		.size	I2C_1_SlaveGetWriteBufSize, .-I2C_1_SlaveGetWriteBufSize
ARM GAS  C:\Users\HPz420\AppData\Local\Temp\cc4n98QM.s 			page 12


 308              		.section	.text.I2C_1_SlaveClearReadBuf,"ax",%progbits
 309              		.align	2
 310              		.global	I2C_1_SlaveClearReadBuf
 311              		.thumb
 312              		.thumb_func
 313              		.type	I2C_1_SlaveClearReadBuf, %function
 314              	I2C_1_SlaveClearReadBuf:
 315              	.LFB8:
 321:Generated_Source\PSoC5/I2C_1_SLAVE.c **** 
 322:Generated_Source\PSoC5/I2C_1_SLAVE.c **** 
 323:Generated_Source\PSoC5/I2C_1_SLAVE.c **** /*******************************************************************************
 324:Generated_Source\PSoC5/I2C_1_SLAVE.c **** * Function Name: I2C_1_SlaveClearReadBuf
 325:Generated_Source\PSoC5/I2C_1_SLAVE.c **** ********************************************************************************
 326:Generated_Source\PSoC5/I2C_1_SLAVE.c **** *
 327:Generated_Source\PSoC5/I2C_1_SLAVE.c **** * Summary:
 328:Generated_Source\PSoC5/I2C_1_SLAVE.c **** *  Resets the read pointer to the first byte in the read buffer. The next byte
 329:Generated_Source\PSoC5/I2C_1_SLAVE.c **** *  read by the master will be the first byte in the read buffer.
 330:Generated_Source\PSoC5/I2C_1_SLAVE.c **** *
 331:Generated_Source\PSoC5/I2C_1_SLAVE.c **** * Parameters:
 332:Generated_Source\PSoC5/I2C_1_SLAVE.c **** *  None.
 333:Generated_Source\PSoC5/I2C_1_SLAVE.c **** *
 334:Generated_Source\PSoC5/I2C_1_SLAVE.c **** * Return:
 335:Generated_Source\PSoC5/I2C_1_SLAVE.c **** *  None.
 336:Generated_Source\PSoC5/I2C_1_SLAVE.c **** *
 337:Generated_Source\PSoC5/I2C_1_SLAVE.c **** * Global variables:
 338:Generated_Source\PSoC5/I2C_1_SLAVE.c **** *  I2C_1_slRdBufIndex - The global variable used to store a current
 339:Generated_Source\PSoC5/I2C_1_SLAVE.c **** *                                  index the within slave read buffer.
 340:Generated_Source\PSoC5/I2C_1_SLAVE.c **** *
 341:Generated_Source\PSoC5/I2C_1_SLAVE.c **** * Reentrant:
 342:Generated_Source\PSoC5/I2C_1_SLAVE.c **** *  No.
 343:Generated_Source\PSoC5/I2C_1_SLAVE.c **** *
 344:Generated_Source\PSoC5/I2C_1_SLAVE.c **** *******************************************************************************/
 345:Generated_Source\PSoC5/I2C_1_SLAVE.c **** void I2C_1_SlaveClearReadBuf(void) 
 346:Generated_Source\PSoC5/I2C_1_SLAVE.c **** {
 316              		.loc 1 346 0
 317              		.cfi_startproc
 318              		@ args = 0, pretend = 0, frame = 0
 319              		@ frame_needed = 0, uses_anonymous_args = 0
 320              		@ link register save eliminated.
 347:Generated_Source\PSoC5/I2C_1_SLAVE.c ****     I2C_1_slRdBufIndex = 0u;
 321              		.loc 1 347 0
 322 0000 0022     		movs	r2, #0
 323 0002 014B     		ldr	r3, .L28
 324 0004 1A70     		strb	r2, [r3]
 325 0006 7047     		bx	lr
 326              	.L29:
 327              		.align	2
 328              	.L28:
 329 0008 00000000 		.word	I2C_1_slRdBufIndex
 330              		.cfi_endproc
 331              	.LFE8:
 332              		.size	I2C_1_SlaveClearReadBuf, .-I2C_1_SlaveClearReadBuf
 333              		.section	.text.I2C_1_SlaveClearWriteBuf,"ax",%progbits
 334              		.align	2
 335              		.global	I2C_1_SlaveClearWriteBuf
 336              		.thumb
 337              		.thumb_func
ARM GAS  C:\Users\HPz420\AppData\Local\Temp\cc4n98QM.s 			page 13


 338              		.type	I2C_1_SlaveClearWriteBuf, %function
 339              	I2C_1_SlaveClearWriteBuf:
 340              	.LFB9:
 348:Generated_Source\PSoC5/I2C_1_SLAVE.c **** }
 349:Generated_Source\PSoC5/I2C_1_SLAVE.c **** 
 350:Generated_Source\PSoC5/I2C_1_SLAVE.c **** 
 351:Generated_Source\PSoC5/I2C_1_SLAVE.c **** /*******************************************************************************
 352:Generated_Source\PSoC5/I2C_1_SLAVE.c **** * Function Name: I2C_1_SlaveClearRxBuf
 353:Generated_Source\PSoC5/I2C_1_SLAVE.c **** ********************************************************************************
 354:Generated_Source\PSoC5/I2C_1_SLAVE.c **** *
 355:Generated_Source\PSoC5/I2C_1_SLAVE.c **** * Summary:
 356:Generated_Source\PSoC5/I2C_1_SLAVE.c **** *  Resets the write pointer to the first byte in the write buffer. The next byte
 357:Generated_Source\PSoC5/I2C_1_SLAVE.c **** *  written by the master will be the first byte in the write buffer.
 358:Generated_Source\PSoC5/I2C_1_SLAVE.c **** *
 359:Generated_Source\PSoC5/I2C_1_SLAVE.c **** * Parameters:
 360:Generated_Source\PSoC5/I2C_1_SLAVE.c **** *  None.
 361:Generated_Source\PSoC5/I2C_1_SLAVE.c **** *
 362:Generated_Source\PSoC5/I2C_1_SLAVE.c **** * Return:
 363:Generated_Source\PSoC5/I2C_1_SLAVE.c **** *  None.
 364:Generated_Source\PSoC5/I2C_1_SLAVE.c **** *
 365:Generated_Source\PSoC5/I2C_1_SLAVE.c **** * Global variables:
 366:Generated_Source\PSoC5/I2C_1_SLAVE.c **** *  I2C_1_slWrBufIndex - The global variable used to store a current
 367:Generated_Source\PSoC5/I2C_1_SLAVE.c **** *                                  index within the slave write buffer.
 368:Generated_Source\PSoC5/I2C_1_SLAVE.c **** *
 369:Generated_Source\PSoC5/I2C_1_SLAVE.c **** * Reentrant:
 370:Generated_Source\PSoC5/I2C_1_SLAVE.c **** *  No.
 371:Generated_Source\PSoC5/I2C_1_SLAVE.c **** *
 372:Generated_Source\PSoC5/I2C_1_SLAVE.c **** *******************************************************************************/
 373:Generated_Source\PSoC5/I2C_1_SLAVE.c **** void I2C_1_SlaveClearWriteBuf(void) 
 374:Generated_Source\PSoC5/I2C_1_SLAVE.c **** {
 341              		.loc 1 374 0
 342              		.cfi_startproc
 343              		@ args = 0, pretend = 0, frame = 0
 344              		@ frame_needed = 0, uses_anonymous_args = 0
 345              		@ link register save eliminated.
 375:Generated_Source\PSoC5/I2C_1_SLAVE.c ****     I2C_1_slWrBufIndex = 0u;
 346              		.loc 1 375 0
 347 0000 0022     		movs	r2, #0
 348 0002 014B     		ldr	r3, .L31
 349 0004 1A70     		strb	r2, [r3]
 350 0006 7047     		bx	lr
 351              	.L32:
 352              		.align	2
 353              	.L31:
 354 0008 00000000 		.word	I2C_1_slWrBufIndex
 355              		.cfi_endproc
 356              	.LFE9:
 357              		.size	I2C_1_SlaveClearWriteBuf, .-I2C_1_SlaveClearWriteBuf
 358              		.comm	I2C_1_slWrBufIndex,1,1
 359              		.comm	I2C_1_slWrBufSize,1,1
 360              		.comm	I2C_1_slWrBufPtr,4,4
 361              		.comm	I2C_1_slRdBufIndex,1,1
 362              		.comm	I2C_1_slRdBufSize,1,1
 363              		.comm	I2C_1_slRdBufPtr,4,4
 364              		.comm	I2C_1_slStatus,1,1
 365              		.text
 366              	.Letext0:
ARM GAS  C:\Users\HPz420\AppData\Local\Temp\cc4n98QM.s 			page 14


 367              		.file 2 "Generated_Source\\PSoC5\\cytypes.h"