ARM GAS  C:\Users\HPz420\AppData\Local\Temp\ccJ5ACD5.s 			page 1


   1              		.syntax unified
   2              		.cpu cortex-m3
   3              		.fpu softvfp
   4              		.eabi_attribute 20, 1
   5              		.eabi_attribute 21, 1
   6              		.eabi_attribute 23, 3
   7              		.eabi_attribute 24, 1
   8              		.eabi_attribute 25, 1
   9              		.eabi_attribute 26, 1
  10              		.eabi_attribute 30, 1
  11              		.eabi_attribute 34, 1
  12              		.eabi_attribute 18, 4
  13              		.thumb
  14              		.syntax unified
  15              		.file	"P4_12.c"
  16              		.text
  17              	.Ltext0:
  18              		.cfi_sections	.debug_frame
  19              		.section	.text.P4_12_Write,"ax",%progbits
  20              		.align	2
  21              		.global	P4_12_Write
  22              		.thumb
  23              		.thumb_func
  24              		.type	P4_12_Write, %function
  25              	P4_12_Write:
  26              	.LFB0:
  27              		.file 1 "Generated_Source\\PSoC5\\P4_12.c"
   1:Generated_Source\PSoC5/P4_12.c **** /*******************************************************************************
   2:Generated_Source\PSoC5/P4_12.c **** * File Name: P4_12.c  
   3:Generated_Source\PSoC5/P4_12.c **** * Version 2.10
   4:Generated_Source\PSoC5/P4_12.c **** *
   5:Generated_Source\PSoC5/P4_12.c **** * Description:
   6:Generated_Source\PSoC5/P4_12.c **** *  This file contains API to enable firmware control of a Pins component.
   7:Generated_Source\PSoC5/P4_12.c **** *
   8:Generated_Source\PSoC5/P4_12.c **** * Note:
   9:Generated_Source\PSoC5/P4_12.c **** *
  10:Generated_Source\PSoC5/P4_12.c **** ********************************************************************************
  11:Generated_Source\PSoC5/P4_12.c **** * Copyright 2008-2014, Cypress Semiconductor Corporation.  All rights reserved.
  12:Generated_Source\PSoC5/P4_12.c **** * You may use this file only in accordance with the license, terms, conditions, 
  13:Generated_Source\PSoC5/P4_12.c **** * disclaimers, and limitations in the end user license agreement accompanying 
  14:Generated_Source\PSoC5/P4_12.c **** * the software package with which this file was provided.
  15:Generated_Source\PSoC5/P4_12.c **** *******************************************************************************/
  16:Generated_Source\PSoC5/P4_12.c **** 
  17:Generated_Source\PSoC5/P4_12.c **** #include "cytypes.h"
  18:Generated_Source\PSoC5/P4_12.c **** #include "P4_12.h"
  19:Generated_Source\PSoC5/P4_12.c **** 
  20:Generated_Source\PSoC5/P4_12.c **** /* APIs are not generated for P15[7:6] on PSoC 5 */
  21:Generated_Source\PSoC5/P4_12.c **** #if !(CY_PSOC5A &&\
  22:Generated_Source\PSoC5/P4_12.c **** 	 P4_12__PORT == 15 && ((P4_12__MASK & 0xC0) != 0))
  23:Generated_Source\PSoC5/P4_12.c **** 
  24:Generated_Source\PSoC5/P4_12.c **** 
  25:Generated_Source\PSoC5/P4_12.c **** /*******************************************************************************
  26:Generated_Source\PSoC5/P4_12.c **** * Function Name: P4_12_Write
  27:Generated_Source\PSoC5/P4_12.c **** ********************************************************************************
  28:Generated_Source\PSoC5/P4_12.c **** *
  29:Generated_Source\PSoC5/P4_12.c **** * Summary:
  30:Generated_Source\PSoC5/P4_12.c **** *  Assign a new value to the digital port's data output register.  
ARM GAS  C:\Users\HPz420\AppData\Local\Temp\ccJ5ACD5.s 			page 2


  31:Generated_Source\PSoC5/P4_12.c **** *
  32:Generated_Source\PSoC5/P4_12.c **** * Parameters:  
  33:Generated_Source\PSoC5/P4_12.c **** *  prtValue:  The value to be assigned to the Digital Port. 
  34:Generated_Source\PSoC5/P4_12.c **** *
  35:Generated_Source\PSoC5/P4_12.c **** * Return: 
  36:Generated_Source\PSoC5/P4_12.c **** *  None
  37:Generated_Source\PSoC5/P4_12.c **** *  
  38:Generated_Source\PSoC5/P4_12.c **** *******************************************************************************/
  39:Generated_Source\PSoC5/P4_12.c **** void P4_12_Write(uint8 value) 
  40:Generated_Source\PSoC5/P4_12.c **** {
  28              		.loc 1 40 0
  29              		.cfi_startproc
  30              		@ args = 0, pretend = 0, frame = 0
  31              		@ frame_needed = 0, uses_anonymous_args = 0
  32              		@ link register save eliminated.
  33              	.LVL0:
  41:Generated_Source\PSoC5/P4_12.c ****     uint8 staticBits = (P4_12_DR & (uint8)(~P4_12_MASK));
  34              		.loc 1 41 0
  35 0000 044A     		ldr	r2, .L2
  36 0002 1378     		ldrb	r3, [r2]	@ zero_extendqisi2
  37 0004 03F07F03 		and	r3, r3, #127
  38              	.LVL1:
  42:Generated_Source\PSoC5/P4_12.c ****     P4_12_DR = staticBits | ((uint8)(value << P4_12_SHIFT) & P4_12_MASK);
  39              		.loc 1 42 0
  40 0008 C001     		lsls	r0, r0, #7
  41              	.LVL2:
  42 000a C0B2     		uxtb	r0, r0
  43 000c 1843     		orrs	r0, r0, r3
  44 000e 1070     		strb	r0, [r2]
  45 0010 7047     		bx	lr
  46              	.L3:
  47 0012 00BF     		.align	2
  48              	.L2:
  49 0014 30510040 		.word	1073762608
  50              		.cfi_endproc
  51              	.LFE0:
  52              		.size	P4_12_Write, .-P4_12_Write
  53              		.section	.text.P4_12_SetDriveMode,"ax",%progbits
  54              		.align	2
  55              		.global	P4_12_SetDriveMode
  56              		.thumb
  57              		.thumb_func
  58              		.type	P4_12_SetDriveMode, %function
  59              	P4_12_SetDriveMode:
  60              	.LFB1:
  43:Generated_Source\PSoC5/P4_12.c **** }
  44:Generated_Source\PSoC5/P4_12.c **** 
  45:Generated_Source\PSoC5/P4_12.c **** 
  46:Generated_Source\PSoC5/P4_12.c **** /*******************************************************************************
  47:Generated_Source\PSoC5/P4_12.c **** * Function Name: P4_12_SetDriveMode
  48:Generated_Source\PSoC5/P4_12.c **** ********************************************************************************
  49:Generated_Source\PSoC5/P4_12.c **** *
  50:Generated_Source\PSoC5/P4_12.c **** * Summary:
  51:Generated_Source\PSoC5/P4_12.c **** *  Change the drive mode on the pins of the port.
  52:Generated_Source\PSoC5/P4_12.c **** * 
  53:Generated_Source\PSoC5/P4_12.c **** * Parameters:  
  54:Generated_Source\PSoC5/P4_12.c **** *  mode:  Change the pins to one of the following drive modes.
ARM GAS  C:\Users\HPz420\AppData\Local\Temp\ccJ5ACD5.s 			page 3


  55:Generated_Source\PSoC5/P4_12.c **** *
  56:Generated_Source\PSoC5/P4_12.c **** *  P4_12_DM_STRONG     Strong Drive 
  57:Generated_Source\PSoC5/P4_12.c **** *  P4_12_DM_OD_HI      Open Drain, Drives High 
  58:Generated_Source\PSoC5/P4_12.c **** *  P4_12_DM_OD_LO      Open Drain, Drives Low 
  59:Generated_Source\PSoC5/P4_12.c **** *  P4_12_DM_RES_UP     Resistive Pull Up 
  60:Generated_Source\PSoC5/P4_12.c **** *  P4_12_DM_RES_DWN    Resistive Pull Down 
  61:Generated_Source\PSoC5/P4_12.c **** *  P4_12_DM_RES_UPDWN  Resistive Pull Up/Down 
  62:Generated_Source\PSoC5/P4_12.c **** *  P4_12_DM_DIG_HIZ    High Impedance Digital 
  63:Generated_Source\PSoC5/P4_12.c **** *  P4_12_DM_ALG_HIZ    High Impedance Analog 
  64:Generated_Source\PSoC5/P4_12.c **** *
  65:Generated_Source\PSoC5/P4_12.c **** * Return: 
  66:Generated_Source\PSoC5/P4_12.c **** *  None
  67:Generated_Source\PSoC5/P4_12.c **** *
  68:Generated_Source\PSoC5/P4_12.c **** *******************************************************************************/
  69:Generated_Source\PSoC5/P4_12.c **** void P4_12_SetDriveMode(uint8 mode) 
  70:Generated_Source\PSoC5/P4_12.c **** {
  61              		.loc 1 70 0
  62              		.cfi_startproc
  63              		@ args = 0, pretend = 0, frame = 0
  64              		@ frame_needed = 0, uses_anonymous_args = 0
  65              		@ link register save eliminated.
  66              	.LVL3:
  71:Generated_Source\PSoC5/P4_12.c **** 	CyPins_SetPinDriveMode(P4_12_0, mode);
  67              		.loc 1 71 0
  68 0000 044A     		ldr	r2, .L5
  69 0002 1378     		ldrb	r3, [r2]	@ zero_extendqisi2
  70 0004 03F0F103 		and	r3, r3, #241
  71 0008 00F00E00 		and	r0, r0, #14
  72              	.LVL4:
  73 000c 1843     		orrs	r0, r0, r3
  74 000e 1070     		strb	r0, [r2]
  75 0010 7047     		bx	lr
  76              	.L6:
  77 0012 00BF     		.align	2
  78              	.L5:
  79 0014 1F500040 		.word	1073762335
  80              		.cfi_endproc
  81              	.LFE1:
  82              		.size	P4_12_SetDriveMode, .-P4_12_SetDriveMode
  83              		.section	.text.P4_12_Read,"ax",%progbits
  84              		.align	2
  85              		.global	P4_12_Read
  86              		.thumb
  87              		.thumb_func
  88              		.type	P4_12_Read, %function
  89              	P4_12_Read:
  90              	.LFB2:
  72:Generated_Source\PSoC5/P4_12.c **** }
  73:Generated_Source\PSoC5/P4_12.c **** 
  74:Generated_Source\PSoC5/P4_12.c **** 
  75:Generated_Source\PSoC5/P4_12.c **** /*******************************************************************************
  76:Generated_Source\PSoC5/P4_12.c **** * Function Name: P4_12_Read
  77:Generated_Source\PSoC5/P4_12.c **** ********************************************************************************
  78:Generated_Source\PSoC5/P4_12.c **** *
  79:Generated_Source\PSoC5/P4_12.c **** * Summary:
  80:Generated_Source\PSoC5/P4_12.c **** *  Read the current value on the pins of the Digital Port in right justified 
  81:Generated_Source\PSoC5/P4_12.c **** *  form.
ARM GAS  C:\Users\HPz420\AppData\Local\Temp\ccJ5ACD5.s 			page 4


  82:Generated_Source\PSoC5/P4_12.c **** *
  83:Generated_Source\PSoC5/P4_12.c **** * Parameters:  
  84:Generated_Source\PSoC5/P4_12.c **** *  None
  85:Generated_Source\PSoC5/P4_12.c **** *
  86:Generated_Source\PSoC5/P4_12.c **** * Return: 
  87:Generated_Source\PSoC5/P4_12.c **** *  Returns the current value of the Digital Port as a right justified number
  88:Generated_Source\PSoC5/P4_12.c **** *  
  89:Generated_Source\PSoC5/P4_12.c **** * Note:
  90:Generated_Source\PSoC5/P4_12.c **** *  Macro P4_12_ReadPS calls this function. 
  91:Generated_Source\PSoC5/P4_12.c **** *  
  92:Generated_Source\PSoC5/P4_12.c **** *******************************************************************************/
  93:Generated_Source\PSoC5/P4_12.c **** uint8 P4_12_Read(void) 
  94:Generated_Source\PSoC5/P4_12.c **** {
  91              		.loc 1 94 0
  92              		.cfi_startproc
  93              		@ args = 0, pretend = 0, frame = 0
  94              		@ frame_needed = 0, uses_anonymous_args = 0
  95              		@ link register save eliminated.
  95:Generated_Source\PSoC5/P4_12.c ****     return (P4_12_PS & P4_12_MASK) >> P4_12_SHIFT;
  96              		.loc 1 95 0
  97 0000 014B     		ldr	r3, .L8
  98 0002 1878     		ldrb	r0, [r3]	@ zero_extendqisi2
  96:Generated_Source\PSoC5/P4_12.c **** }
  99              		.loc 1 96 0
 100 0004 C009     		lsrs	r0, r0, #7
 101 0006 7047     		bx	lr
 102              	.L9:
 103              		.align	2
 104              	.L8:
 105 0008 31510040 		.word	1073762609
 106              		.cfi_endproc
 107              	.LFE2:
 108              		.size	P4_12_Read, .-P4_12_Read
 109              		.section	.text.P4_12_ReadDataReg,"ax",%progbits
 110              		.align	2
 111              		.global	P4_12_ReadDataReg
 112              		.thumb
 113              		.thumb_func
 114              		.type	P4_12_ReadDataReg, %function
 115              	P4_12_ReadDataReg:
 116              	.LFB3:
  97:Generated_Source\PSoC5/P4_12.c **** 
  98:Generated_Source\PSoC5/P4_12.c **** 
  99:Generated_Source\PSoC5/P4_12.c **** /*******************************************************************************
 100:Generated_Source\PSoC5/P4_12.c **** * Function Name: P4_12_ReadDataReg
 101:Generated_Source\PSoC5/P4_12.c **** ********************************************************************************
 102:Generated_Source\PSoC5/P4_12.c **** *
 103:Generated_Source\PSoC5/P4_12.c **** * Summary:
 104:Generated_Source\PSoC5/P4_12.c **** *  Read the current value assigned to a Digital Port's data output register
 105:Generated_Source\PSoC5/P4_12.c **** *
 106:Generated_Source\PSoC5/P4_12.c **** * Parameters:  
 107:Generated_Source\PSoC5/P4_12.c **** *  None 
 108:Generated_Source\PSoC5/P4_12.c **** *
 109:Generated_Source\PSoC5/P4_12.c **** * Return: 
 110:Generated_Source\PSoC5/P4_12.c **** *  Returns the current value assigned to the Digital Port's data output register
 111:Generated_Source\PSoC5/P4_12.c **** *  
 112:Generated_Source\PSoC5/P4_12.c **** *******************************************************************************/
ARM GAS  C:\Users\HPz420\AppData\Local\Temp\ccJ5ACD5.s 			page 5


 113:Generated_Source\PSoC5/P4_12.c **** uint8 P4_12_ReadDataReg(void) 
 114:Generated_Source\PSoC5/P4_12.c **** {
 117              		.loc 1 114 0
 118              		.cfi_startproc
 119              		@ args = 0, pretend = 0, frame = 0
 120              		@ frame_needed = 0, uses_anonymous_args = 0
 121              		@ link register save eliminated.
 115:Generated_Source\PSoC5/P4_12.c ****     return (P4_12_DR & P4_12_MASK) >> P4_12_SHIFT;
 122              		.loc 1 115 0
 123 0000 014B     		ldr	r3, .L11
 124 0002 1878     		ldrb	r0, [r3]	@ zero_extendqisi2
 116:Generated_Source\PSoC5/P4_12.c **** }
 125              		.loc 1 116 0
 126 0004 C009     		lsrs	r0, r0, #7
 127 0006 7047     		bx	lr
 128              	.L12:
 129              		.align	2
 130              	.L11:
 131 0008 30510040 		.word	1073762608
 132              		.cfi_endproc
 133              	.LFE3:
 134              		.size	P4_12_ReadDataReg, .-P4_12_ReadDataReg
 135              		.text
 136              	.Letext0:
 137              		.file 2 "Generated_Source\\PSoC5\\cytypes.h"