ARM GAS  C:\Users\doug_000\AppData\Local\Temp\cc4MU8OV.s 			page 1


   1              		.syntax unified
   2              		.cpu cortex-m3
   3              		.fpu softvfp
   4              		.eabi_attribute 20, 1
   5              		.eabi_attribute 21, 1
   6              		.eabi_attribute 23, 3
   7              		.eabi_attribute 24, 1
   8              		.eabi_attribute 25, 1
   9              		.eabi_attribute 26, 1
  10              		.eabi_attribute 30, 1
  11              		.eabi_attribute 34, 1
  12              		.eabi_attribute 18, 4
  13              		.thumb
  14              		.file	"WaveDAC8_1.c"
  15              		.text
  16              	.Ltext0:
  17              		.cfi_sections	.debug_frame
  18              		.section	.text.WaveDAC8_1_Enable,"ax",%progbits
  19              		.align	2
  20              		.global	WaveDAC8_1_Enable
  21              		.thumb
  22              		.thumb_func
  23              		.type	WaveDAC8_1_Enable, %function
  24              	WaveDAC8_1_Enable:
  25              	.LFB1:
  26              		.file 1 ".\\Generated_Source\\PSoC5\\WaveDAC8_1.c"
   1:.\Generated_Source\PSoC5/WaveDAC8_1.c **** /*******************************************************************************
   2:.\Generated_Source\PSoC5/WaveDAC8_1.c **** * File Name: WaveDAC8_1.c
   3:.\Generated_Source\PSoC5/WaveDAC8_1.c **** * Version 2.0
   4:.\Generated_Source\PSoC5/WaveDAC8_1.c **** *
   5:.\Generated_Source\PSoC5/WaveDAC8_1.c **** * Description:
   6:.\Generated_Source\PSoC5/WaveDAC8_1.c **** *  This file provides the source code for the 8-bit Waveform DAC 
   7:.\Generated_Source\PSoC5/WaveDAC8_1.c **** *  (WaveDAC8) Component.
   8:.\Generated_Source\PSoC5/WaveDAC8_1.c **** *
   9:.\Generated_Source\PSoC5/WaveDAC8_1.c **** ********************************************************************************
  10:.\Generated_Source\PSoC5/WaveDAC8_1.c **** * Copyright 2013, Cypress Semiconductor Corporation.  All rights reserved.
  11:.\Generated_Source\PSoC5/WaveDAC8_1.c **** * You may use this file only in accordance with the license, terms, conditions,
  12:.\Generated_Source\PSoC5/WaveDAC8_1.c **** * disclaimers, and limitations in the end user license agreement accompanying
  13:.\Generated_Source\PSoC5/WaveDAC8_1.c **** * the software package with which this file was provided.
  14:.\Generated_Source\PSoC5/WaveDAC8_1.c **** *******************************************************************************/
  15:.\Generated_Source\PSoC5/WaveDAC8_1.c **** 
  16:.\Generated_Source\PSoC5/WaveDAC8_1.c **** #include "WaveDAC8_1.h"
  17:.\Generated_Source\PSoC5/WaveDAC8_1.c **** 
  18:.\Generated_Source\PSoC5/WaveDAC8_1.c **** uint8  WaveDAC8_1_initVar = 0u;
  19:.\Generated_Source\PSoC5/WaveDAC8_1.c **** 
  20:.\Generated_Source\PSoC5/WaveDAC8_1.c **** const uint8 CYCODE WaveDAC8_1_wave1[WaveDAC8_1_WAVE1_LENGTH] = { 128u,129u,131u,133u,135u,137u,139u
  21:.\Generated_Source\PSoC5/WaveDAC8_1.c **** const uint8 CYCODE WaveDAC8_1_wave2[WaveDAC8_1_WAVE2_LENGTH] = { 128u,132u,137u,142u,147u,152u,157u
  22:.\Generated_Source\PSoC5/WaveDAC8_1.c **** 
  23:.\Generated_Source\PSoC5/WaveDAC8_1.c **** static uint8  WaveDAC8_1_Wave1Chan;
  24:.\Generated_Source\PSoC5/WaveDAC8_1.c **** static uint8  WaveDAC8_1_Wave2Chan;
  25:.\Generated_Source\PSoC5/WaveDAC8_1.c **** static uint8  WaveDAC8_1_Wave1TD;
  26:.\Generated_Source\PSoC5/WaveDAC8_1.c **** static uint8  WaveDAC8_1_Wave2TD;
  27:.\Generated_Source\PSoC5/WaveDAC8_1.c **** 
  28:.\Generated_Source\PSoC5/WaveDAC8_1.c **** 
  29:.\Generated_Source\PSoC5/WaveDAC8_1.c **** /*******************************************************************************
  30:.\Generated_Source\PSoC5/WaveDAC8_1.c **** * Function Name: WaveDAC8_1_Init
  31:.\Generated_Source\PSoC5/WaveDAC8_1.c **** ********************************************************************************
ARM GAS  C:\Users\doug_000\AppData\Local\Temp\cc4MU8OV.s 			page 2


  32:.\Generated_Source\PSoC5/WaveDAC8_1.c **** *
  33:.\Generated_Source\PSoC5/WaveDAC8_1.c **** * Summary:
  34:.\Generated_Source\PSoC5/WaveDAC8_1.c **** *  Initializes component with parameters set in the customizer.
  35:.\Generated_Source\PSoC5/WaveDAC8_1.c **** *
  36:.\Generated_Source\PSoC5/WaveDAC8_1.c **** * Parameters:  
  37:.\Generated_Source\PSoC5/WaveDAC8_1.c **** *  None
  38:.\Generated_Source\PSoC5/WaveDAC8_1.c **** *
  39:.\Generated_Source\PSoC5/WaveDAC8_1.c **** * Return: 
  40:.\Generated_Source\PSoC5/WaveDAC8_1.c **** *  None
  41:.\Generated_Source\PSoC5/WaveDAC8_1.c **** *
  42:.\Generated_Source\PSoC5/WaveDAC8_1.c **** *******************************************************************************/
  43:.\Generated_Source\PSoC5/WaveDAC8_1.c **** void WaveDAC8_1_Init(void) 
  44:.\Generated_Source\PSoC5/WaveDAC8_1.c **** {
  45:.\Generated_Source\PSoC5/WaveDAC8_1.c **** 	WaveDAC8_1_VDAC8_Init();
  46:.\Generated_Source\PSoC5/WaveDAC8_1.c **** 	WaveDAC8_1_VDAC8_SetSpeed(WaveDAC8_1_HIGHSPEED);
  47:.\Generated_Source\PSoC5/WaveDAC8_1.c **** 	WaveDAC8_1_VDAC8_SetRange(WaveDAC8_1_DAC_RANGE);
  48:.\Generated_Source\PSoC5/WaveDAC8_1.c **** 
  49:.\Generated_Source\PSoC5/WaveDAC8_1.c **** 	#if(WaveDAC8_1_DAC_MODE == WaveDAC8_1_CURRENT_MODE)
  50:.\Generated_Source\PSoC5/WaveDAC8_1.c **** 		WaveDAC8_1_IDAC8_SetPolarity(WaveDAC8_1_DAC_POL);
  51:.\Generated_Source\PSoC5/WaveDAC8_1.c **** 	#endif /* WaveDAC8_1_DAC_MODE == WaveDAC8_1_CURRENT_MODE */
  52:.\Generated_Source\PSoC5/WaveDAC8_1.c **** 
  53:.\Generated_Source\PSoC5/WaveDAC8_1.c **** 	#if(WaveDAC8_1_OUT_MODE == WaveDAC8_1_BUFFER_MODE)
  54:.\Generated_Source\PSoC5/WaveDAC8_1.c **** 	   WaveDAC8_1_BuffAmp_Init();
  55:.\Generated_Source\PSoC5/WaveDAC8_1.c **** 	#endif /* WaveDAC8_1_OUT_MODE == WaveDAC8_1_BUFFER_MODE */
  56:.\Generated_Source\PSoC5/WaveDAC8_1.c **** 
  57:.\Generated_Source\PSoC5/WaveDAC8_1.c **** 	/* Get the TD Number for the DMA channel 1 and 2   */
  58:.\Generated_Source\PSoC5/WaveDAC8_1.c **** 	WaveDAC8_1_Wave1TD = CyDmaTdAllocate();
  59:.\Generated_Source\PSoC5/WaveDAC8_1.c **** 	WaveDAC8_1_Wave2TD = CyDmaTdAllocate();
  60:.\Generated_Source\PSoC5/WaveDAC8_1.c **** 	
  61:.\Generated_Source\PSoC5/WaveDAC8_1.c **** 	/* Initialize waveform pointers  */
  62:.\Generated_Source\PSoC5/WaveDAC8_1.c **** 	WaveDAC8_1_Wave1Setup(WaveDAC8_1_wave1, WaveDAC8_1_WAVE1_LENGTH) ;
  63:.\Generated_Source\PSoC5/WaveDAC8_1.c **** 	WaveDAC8_1_Wave2Setup(WaveDAC8_1_wave2, WaveDAC8_1_WAVE2_LENGTH) ;
  64:.\Generated_Source\PSoC5/WaveDAC8_1.c **** 	
  65:.\Generated_Source\PSoC5/WaveDAC8_1.c **** 	/* Initialize the internal clock if one present  */
  66:.\Generated_Source\PSoC5/WaveDAC8_1.c **** 	#if defined(WaveDAC8_1_DacClk_PHASE)
  67:.\Generated_Source\PSoC5/WaveDAC8_1.c **** 	   WaveDAC8_1_DacClk_SetPhase(WaveDAC8_1_CLK_PHASE_0nS);
  68:.\Generated_Source\PSoC5/WaveDAC8_1.c **** 	#endif /* defined(WaveDAC8_1_DacClk_PHASE) */
  69:.\Generated_Source\PSoC5/WaveDAC8_1.c **** }
  70:.\Generated_Source\PSoC5/WaveDAC8_1.c **** 
  71:.\Generated_Source\PSoC5/WaveDAC8_1.c **** 
  72:.\Generated_Source\PSoC5/WaveDAC8_1.c **** /*******************************************************************************
  73:.\Generated_Source\PSoC5/WaveDAC8_1.c **** * Function Name: WaveDAC8_1_Enable
  74:.\Generated_Source\PSoC5/WaveDAC8_1.c **** ********************************************************************************
  75:.\Generated_Source\PSoC5/WaveDAC8_1.c **** *  
  76:.\Generated_Source\PSoC5/WaveDAC8_1.c **** * Summary: 
  77:.\Generated_Source\PSoC5/WaveDAC8_1.c **** *  Enables the DAC block and DMA operation.
  78:.\Generated_Source\PSoC5/WaveDAC8_1.c **** *
  79:.\Generated_Source\PSoC5/WaveDAC8_1.c **** * Parameters:  
  80:.\Generated_Source\PSoC5/WaveDAC8_1.c **** *  None
  81:.\Generated_Source\PSoC5/WaveDAC8_1.c **** *
  82:.\Generated_Source\PSoC5/WaveDAC8_1.c **** * Return: 
  83:.\Generated_Source\PSoC5/WaveDAC8_1.c **** *  None
  84:.\Generated_Source\PSoC5/WaveDAC8_1.c **** *
  85:.\Generated_Source\PSoC5/WaveDAC8_1.c **** *******************************************************************************/
  86:.\Generated_Source\PSoC5/WaveDAC8_1.c **** void WaveDAC8_1_Enable(void) 
  87:.\Generated_Source\PSoC5/WaveDAC8_1.c **** {
  27              		.loc 1 87 0
ARM GAS  C:\Users\doug_000\AppData\Local\Temp\cc4MU8OV.s 			page 3


  28              		.cfi_startproc
  29              		@ args = 0, pretend = 0, frame = 0
  30              		@ frame_needed = 0, uses_anonymous_args = 0
  31 0000 10B5     		push	{r4, lr}
  32              		.cfi_def_cfa_offset 8
  33              		.cfi_offset 4, -8
  34              		.cfi_offset 14, -4
  88:.\Generated_Source\PSoC5/WaveDAC8_1.c **** 	WaveDAC8_1_VDAC8_Enable();
  35              		.loc 1 88 0
  36 0002 FFF7FEFF 		bl	WaveDAC8_1_VDAC8_Enable
  37              	.LVL0:
  89:.\Generated_Source\PSoC5/WaveDAC8_1.c **** 
  90:.\Generated_Source\PSoC5/WaveDAC8_1.c **** 	#if(WaveDAC8_1_OUT_MODE == WaveDAC8_1_BUFFER_MODE)
  91:.\Generated_Source\PSoC5/WaveDAC8_1.c **** 	   WaveDAC8_1_BuffAmp_Enable();
  92:.\Generated_Source\PSoC5/WaveDAC8_1.c **** 	#endif /* WaveDAC8_1_OUT_MODE == WaveDAC8_1_BUFFER_MODE */
  93:.\Generated_Source\PSoC5/WaveDAC8_1.c **** 
  94:.\Generated_Source\PSoC5/WaveDAC8_1.c **** 	/* 
  95:.\Generated_Source\PSoC5/WaveDAC8_1.c **** 	* Enable the channel. It is configured to remember the TD value so that
  96:.\Generated_Source\PSoC5/WaveDAC8_1.c **** 	* it can be restored from the place where it has been stopped.
  97:.\Generated_Source\PSoC5/WaveDAC8_1.c **** 	*/
  98:.\Generated_Source\PSoC5/WaveDAC8_1.c **** 	(void)CyDmaChEnable(WaveDAC8_1_Wave1Chan, 1u);
  38              		.loc 1 98 0
  39 0006 074C     		ldr	r4, .L3
  40 0008 2078     		ldrb	r0, [r4]	@ zero_extendqisi2
  41 000a 0121     		movs	r1, #1
  42 000c FFF7FEFF 		bl	CyDmaChEnable
  43              	.LVL1:
  99:.\Generated_Source\PSoC5/WaveDAC8_1.c **** 	(void)CyDmaChEnable(WaveDAC8_1_Wave2Chan, 1u);
  44              		.loc 1 99 0
  45 0010 6078     		ldrb	r0, [r4, #1]	@ zero_extendqisi2
  46 0012 0121     		movs	r1, #1
  47 0014 FFF7FEFF 		bl	CyDmaChEnable
  48              	.LVL2:
 100:.\Generated_Source\PSoC5/WaveDAC8_1.c **** 	
 101:.\Generated_Source\PSoC5/WaveDAC8_1.c **** 	/* set the initial value */
 102:.\Generated_Source\PSoC5/WaveDAC8_1.c **** 	WaveDAC8_1_SetValue(0u);
  49              		.loc 1 102 0
  50 0018 0020     		movs	r0, #0
  51 001a FFF7FEFF 		bl	WaveDAC8_1_VDAC8_SetValue
  52              	.LVL3:
 103:.\Generated_Source\PSoC5/WaveDAC8_1.c **** 	
 104:.\Generated_Source\PSoC5/WaveDAC8_1.c **** 	#if(WaveDAC8_1_CLOCK_SRC == WaveDAC8_1_CLOCK_INT)  	
 105:.\Generated_Source\PSoC5/WaveDAC8_1.c **** 	   WaveDAC8_1_DacClk_Start();
  53              		.loc 1 105 0
  54 001e FFF7FEFF 		bl	WaveDAC8_1_DacClk_Start
  55              	.LVL4:
  56 0022 10BD     		pop	{r4, pc}
  57              	.L4:
  58              		.align	2
  59              	.L3:
  60 0024 00000000 		.word	.LANCHOR0
  61              		.cfi_endproc
  62              	.LFE1:
  63              		.size	WaveDAC8_1_Enable, .-WaveDAC8_1_Enable
  64              		.section	.text.WaveDAC8_1_Stop,"ax",%progbits
  65              		.align	2
  66              		.global	WaveDAC8_1_Stop
ARM GAS  C:\Users\doug_000\AppData\Local\Temp\cc4MU8OV.s 			page 4


  67              		.thumb
  68              		.thumb_func
  69              		.type	WaveDAC8_1_Stop, %function
  70              	WaveDAC8_1_Stop:
  71              	.LFB4:
 106:.\Generated_Source\PSoC5/WaveDAC8_1.c **** 	#endif /* WaveDAC8_1_CLOCK_SRC == WaveDAC8_1_CLOCK_INT */
 107:.\Generated_Source\PSoC5/WaveDAC8_1.c **** }
 108:.\Generated_Source\PSoC5/WaveDAC8_1.c **** 
 109:.\Generated_Source\PSoC5/WaveDAC8_1.c **** 
 110:.\Generated_Source\PSoC5/WaveDAC8_1.c **** /*******************************************************************************
 111:.\Generated_Source\PSoC5/WaveDAC8_1.c **** * Function Name: WaveDAC8_1_Start
 112:.\Generated_Source\PSoC5/WaveDAC8_1.c **** ********************************************************************************
 113:.\Generated_Source\PSoC5/WaveDAC8_1.c **** *
 114:.\Generated_Source\PSoC5/WaveDAC8_1.c **** * Summary:
 115:.\Generated_Source\PSoC5/WaveDAC8_1.c **** *  The start function initializes the voltage DAC with the default values, 
 116:.\Generated_Source\PSoC5/WaveDAC8_1.c **** *  and sets the power to the given level.  A power level of 0, is the same as 
 117:.\Generated_Source\PSoC5/WaveDAC8_1.c **** *  executing the stop function.
 118:.\Generated_Source\PSoC5/WaveDAC8_1.c **** *
 119:.\Generated_Source\PSoC5/WaveDAC8_1.c **** * Parameters:  
 120:.\Generated_Source\PSoC5/WaveDAC8_1.c **** *  None
 121:.\Generated_Source\PSoC5/WaveDAC8_1.c **** *
 122:.\Generated_Source\PSoC5/WaveDAC8_1.c **** * Return: 
 123:.\Generated_Source\PSoC5/WaveDAC8_1.c **** *  None
 124:.\Generated_Source\PSoC5/WaveDAC8_1.c **** *
 125:.\Generated_Source\PSoC5/WaveDAC8_1.c **** * Reentrant:
 126:.\Generated_Source\PSoC5/WaveDAC8_1.c **** *  No
 127:.\Generated_Source\PSoC5/WaveDAC8_1.c **** *
 128:.\Generated_Source\PSoC5/WaveDAC8_1.c **** *******************************************************************************/
 129:.\Generated_Source\PSoC5/WaveDAC8_1.c **** void WaveDAC8_1_Start(void) 
 130:.\Generated_Source\PSoC5/WaveDAC8_1.c **** {
 131:.\Generated_Source\PSoC5/WaveDAC8_1.c **** 	/* If not Initialized then initialize all required hardware and software */
 132:.\Generated_Source\PSoC5/WaveDAC8_1.c **** 	if(WaveDAC8_1_initVar == 0u)
 133:.\Generated_Source\PSoC5/WaveDAC8_1.c **** 	{
 134:.\Generated_Source\PSoC5/WaveDAC8_1.c **** 		WaveDAC8_1_Init();
 135:.\Generated_Source\PSoC5/WaveDAC8_1.c **** 		WaveDAC8_1_initVar = 1u;
 136:.\Generated_Source\PSoC5/WaveDAC8_1.c **** 	}
 137:.\Generated_Source\PSoC5/WaveDAC8_1.c **** 	
 138:.\Generated_Source\PSoC5/WaveDAC8_1.c **** 	WaveDAC8_1_Enable();
 139:.\Generated_Source\PSoC5/WaveDAC8_1.c **** }
 140:.\Generated_Source\PSoC5/WaveDAC8_1.c **** 
 141:.\Generated_Source\PSoC5/WaveDAC8_1.c **** 
 142:.\Generated_Source\PSoC5/WaveDAC8_1.c **** /*******************************************************************************
 143:.\Generated_Source\PSoC5/WaveDAC8_1.c **** * Function Name: WaveDAC8_1_StartEx
 144:.\Generated_Source\PSoC5/WaveDAC8_1.c **** ********************************************************************************
 145:.\Generated_Source\PSoC5/WaveDAC8_1.c **** *
 146:.\Generated_Source\PSoC5/WaveDAC8_1.c **** * Summary:
 147:.\Generated_Source\PSoC5/WaveDAC8_1.c **** *  The StartEx function sets pointers and sizes for both waveforms
 148:.\Generated_Source\PSoC5/WaveDAC8_1.c **** *  and then starts the component.
 149:.\Generated_Source\PSoC5/WaveDAC8_1.c **** *
 150:.\Generated_Source\PSoC5/WaveDAC8_1.c **** * Parameters:  
 151:.\Generated_Source\PSoC5/WaveDAC8_1.c **** *   uint8 * wavePtr1:     Pointer to the waveform 1 array.
 152:.\Generated_Source\PSoC5/WaveDAC8_1.c **** *   uint16  sampleSize1:  The amount of samples in the waveform 1.
 153:.\Generated_Source\PSoC5/WaveDAC8_1.c **** *   uint8 * wavePtr2:     Pointer to the waveform 2 array.
 154:.\Generated_Source\PSoC5/WaveDAC8_1.c **** *   uint16  sampleSize2:  The amount of samples in the waveform 2.
 155:.\Generated_Source\PSoC5/WaveDAC8_1.c **** *
 156:.\Generated_Source\PSoC5/WaveDAC8_1.c **** * Return: 
 157:.\Generated_Source\PSoC5/WaveDAC8_1.c **** *  None
ARM GAS  C:\Users\doug_000\AppData\Local\Temp\cc4MU8OV.s 			page 5


 158:.\Generated_Source\PSoC5/WaveDAC8_1.c **** *
 159:.\Generated_Source\PSoC5/WaveDAC8_1.c **** * Reentrant:
 160:.\Generated_Source\PSoC5/WaveDAC8_1.c **** *  No
 161:.\Generated_Source\PSoC5/WaveDAC8_1.c **** *
 162:.\Generated_Source\PSoC5/WaveDAC8_1.c **** *******************************************************************************/
 163:.\Generated_Source\PSoC5/WaveDAC8_1.c **** void WaveDAC8_1_StartEx(const uint8 * wavePtr1, uint16 sampleSize1, const uint8 * wavePtr2, uint16 
 164:.\Generated_Source\PSoC5/WaveDAC8_1.c **** 
 165:.\Generated_Source\PSoC5/WaveDAC8_1.c **** {
 166:.\Generated_Source\PSoC5/WaveDAC8_1.c **** 	WaveDAC8_1_Wave1Setup(wavePtr1, sampleSize1);
 167:.\Generated_Source\PSoC5/WaveDAC8_1.c **** 	WaveDAC8_1_Wave2Setup(wavePtr2, sampleSize2);
 168:.\Generated_Source\PSoC5/WaveDAC8_1.c **** 	WaveDAC8_1_Start();
 169:.\Generated_Source\PSoC5/WaveDAC8_1.c **** }
 170:.\Generated_Source\PSoC5/WaveDAC8_1.c **** 
 171:.\Generated_Source\PSoC5/WaveDAC8_1.c **** 
 172:.\Generated_Source\PSoC5/WaveDAC8_1.c **** /*******************************************************************************
 173:.\Generated_Source\PSoC5/WaveDAC8_1.c **** * Function Name: WaveDAC8_1_Stop
 174:.\Generated_Source\PSoC5/WaveDAC8_1.c **** ********************************************************************************
 175:.\Generated_Source\PSoC5/WaveDAC8_1.c **** *
 176:.\Generated_Source\PSoC5/WaveDAC8_1.c **** * Summary:
 177:.\Generated_Source\PSoC5/WaveDAC8_1.c **** *  Stops the clock (if internal), disables the DMA channels
 178:.\Generated_Source\PSoC5/WaveDAC8_1.c **** *  and powers down the DAC.
 179:.\Generated_Source\PSoC5/WaveDAC8_1.c **** *
 180:.\Generated_Source\PSoC5/WaveDAC8_1.c **** * Parameters:  
 181:.\Generated_Source\PSoC5/WaveDAC8_1.c **** *  None  
 182:.\Generated_Source\PSoC5/WaveDAC8_1.c **** *
 183:.\Generated_Source\PSoC5/WaveDAC8_1.c **** * Return: 
 184:.\Generated_Source\PSoC5/WaveDAC8_1.c **** *  None
 185:.\Generated_Source\PSoC5/WaveDAC8_1.c **** *
 186:.\Generated_Source\PSoC5/WaveDAC8_1.c **** *******************************************************************************/
 187:.\Generated_Source\PSoC5/WaveDAC8_1.c **** void WaveDAC8_1_Stop(void) 
 188:.\Generated_Source\PSoC5/WaveDAC8_1.c **** {
  72              		.loc 1 188 0
  73              		.cfi_startproc
  74              		@ args = 0, pretend = 0, frame = 0
  75              		@ frame_needed = 0, uses_anonymous_args = 0
  76 0000 10B5     		push	{r4, lr}
  77              		.cfi_def_cfa_offset 8
  78              		.cfi_offset 4, -8
  79              		.cfi_offset 14, -4
 189:.\Generated_Source\PSoC5/WaveDAC8_1.c **** 	/* Turn off internal clock, if one present */
 190:.\Generated_Source\PSoC5/WaveDAC8_1.c **** 	#if(WaveDAC8_1_CLOCK_SRC == WaveDAC8_1_CLOCK_INT)  	
 191:.\Generated_Source\PSoC5/WaveDAC8_1.c **** 	   WaveDAC8_1_DacClk_Stop();
  80              		.loc 1 191 0
  81 0002 FFF7FEFF 		bl	WaveDAC8_1_DacClk_Stop
  82              	.LVL5:
 192:.\Generated_Source\PSoC5/WaveDAC8_1.c **** 	#endif /* WaveDAC8_1_CLOCK_SRC == WaveDAC8_1_CLOCK_INT */
 193:.\Generated_Source\PSoC5/WaveDAC8_1.c **** 	
 194:.\Generated_Source\PSoC5/WaveDAC8_1.c **** 	/* Disble DMA channels */
 195:.\Generated_Source\PSoC5/WaveDAC8_1.c **** 	(void)CyDmaChDisable(WaveDAC8_1_Wave1Chan);
  83              		.loc 1 195 0
  84 0006 054C     		ldr	r4, .L7
  85 0008 2078     		ldrb	r0, [r4]	@ zero_extendqisi2
  86 000a FFF7FEFF 		bl	CyDmaChDisable
  87              	.LVL6:
 196:.\Generated_Source\PSoC5/WaveDAC8_1.c **** 	(void)CyDmaChDisable(WaveDAC8_1_Wave2Chan);
  88              		.loc 1 196 0
  89 000e 6078     		ldrb	r0, [r4, #1]	@ zero_extendqisi2
ARM GAS  C:\Users\doug_000\AppData\Local\Temp\cc4MU8OV.s 			page 6


  90 0010 FFF7FEFF 		bl	CyDmaChDisable
  91              	.LVL7:
 197:.\Generated_Source\PSoC5/WaveDAC8_1.c **** 
 198:.\Generated_Source\PSoC5/WaveDAC8_1.c **** 	/* Disable power to DAC */
 199:.\Generated_Source\PSoC5/WaveDAC8_1.c **** 	WaveDAC8_1_VDAC8_Stop();
  92              		.loc 1 199 0
  93 0014 FFF7FEFF 		bl	WaveDAC8_1_VDAC8_Stop
  94              	.LVL8:
  95 0018 10BD     		pop	{r4, pc}
  96              	.L8:
  97 001a 00BF     		.align	2
  98              	.L7:
  99 001c 00000000 		.word	.LANCHOR0
 100              		.cfi_endproc
 101              	.LFE4:
 102              		.size	WaveDAC8_1_Stop, .-WaveDAC8_1_Stop
 103              		.section	.text.WaveDAC8_1_Wave1Setup,"ax",%progbits
 104              		.align	2
 105              		.global	WaveDAC8_1_Wave1Setup
 106              		.thumb
 107              		.thumb_func
 108              		.type	WaveDAC8_1_Wave1Setup, %function
 109              	WaveDAC8_1_Wave1Setup:
 110              	.LFB5:
 200:.\Generated_Source\PSoC5/WaveDAC8_1.c **** }
 201:.\Generated_Source\PSoC5/WaveDAC8_1.c **** 
 202:.\Generated_Source\PSoC5/WaveDAC8_1.c **** 
 203:.\Generated_Source\PSoC5/WaveDAC8_1.c **** /*******************************************************************************
 204:.\Generated_Source\PSoC5/WaveDAC8_1.c **** * Function Name: WaveDAC8_1_Wave1Setup
 205:.\Generated_Source\PSoC5/WaveDAC8_1.c **** ********************************************************************************
 206:.\Generated_Source\PSoC5/WaveDAC8_1.c **** *
 207:.\Generated_Source\PSoC5/WaveDAC8_1.c **** * Summary:
 208:.\Generated_Source\PSoC5/WaveDAC8_1.c **** *  Sets pointer and size for waveform 1.                                    
 209:.\Generated_Source\PSoC5/WaveDAC8_1.c **** *
 210:.\Generated_Source\PSoC5/WaveDAC8_1.c **** * Parameters:  
 211:.\Generated_Source\PSoC5/WaveDAC8_1.c **** *  uint8 * WavePtr:     Pointer to the waveform array.
 212:.\Generated_Source\PSoC5/WaveDAC8_1.c **** *  uint16  SampleSize:  The amount of samples in the waveform.
 213:.\Generated_Source\PSoC5/WaveDAC8_1.c **** *
 214:.\Generated_Source\PSoC5/WaveDAC8_1.c **** * Return: 
 215:.\Generated_Source\PSoC5/WaveDAC8_1.c **** *  None 
 216:.\Generated_Source\PSoC5/WaveDAC8_1.c **** *
 217:.\Generated_Source\PSoC5/WaveDAC8_1.c **** *******************************************************************************/
 218:.\Generated_Source\PSoC5/WaveDAC8_1.c **** void WaveDAC8_1_Wave1Setup(const uint8 * wavePtr, uint16 sampleSize)
 219:.\Generated_Source\PSoC5/WaveDAC8_1.c **** 
 220:.\Generated_Source\PSoC5/WaveDAC8_1.c **** {
 111              		.loc 1 220 0
 112              		.cfi_startproc
 113              		@ args = 0, pretend = 0, frame = 0
 114              		@ frame_needed = 0, uses_anonymous_args = 0
 115              	.LVL9:
 116 0000 70B5     		push	{r4, r5, r6, lr}
 117              		.cfi_def_cfa_offset 16
 118              		.cfi_offset 4, -16
 119              		.cfi_offset 5, -12
 120              		.cfi_offset 6, -8
 121              		.cfi_offset 14, -4
 122 0002 0546     		mov	r5, r0
ARM GAS  C:\Users\doug_000\AppData\Local\Temp\cc4MU8OV.s 			page 7


 123 0004 0E46     		mov	r6, r1
 221:.\Generated_Source\PSoC5/WaveDAC8_1.c **** 	#if (CY_PSOC3)
 222:.\Generated_Source\PSoC5/WaveDAC8_1.c **** 		uint16 memoryType; /* determining the source memory type */
 223:.\Generated_Source\PSoC5/WaveDAC8_1.c **** 		memoryType = (WaveDAC8_1_HI16FLASHPTR == HI16(wavePtr)) ? HI16(CYDEV_FLS_BASE) : HI16(CYDEV_SRAM_
 224:.\Generated_Source\PSoC5/WaveDAC8_1.c **** 		
 225:.\Generated_Source\PSoC5/WaveDAC8_1.c **** 		WaveDAC8_1_Wave1Chan = WaveDAC8_1_Wave1_DMA_DmaInitialize(
 226:.\Generated_Source\PSoC5/WaveDAC8_1.c **** 		WaveDAC8_1_Wave1_DMA_BYTES_PER_BURST, WaveDAC8_1_Wave1_DMA_REQUEST_PER_BURST,
 227:.\Generated_Source\PSoC5/WaveDAC8_1.c **** 		memoryType, HI16(CYDEV_PERIPH_BASE));
 228:.\Generated_Source\PSoC5/WaveDAC8_1.c **** 	#else /* PSoC 5 */
 229:.\Generated_Source\PSoC5/WaveDAC8_1.c **** 		WaveDAC8_1_Wave1Chan = WaveDAC8_1_Wave1_DMA_DmaInitialize(
 124              		.loc 1 229 0
 125 0006 0120     		movs	r0, #1
 126              	.LVL10:
 127 0008 0146     		mov	r1, r0
 128              	.LVL11:
 129 000a 2A0C     		lsrs	r2, r5, #16
 130 000c 4FF48043 		mov	r3, #16384
 131 0010 FFF7FEFF 		bl	WaveDAC8_1_Wave1_DMA_DmaInitialize
 132              	.LVL12:
 133 0014 094C     		ldr	r4, .L11
 134 0016 2070     		strb	r0, [r4]
 230:.\Generated_Source\PSoC5/WaveDAC8_1.c **** 		WaveDAC8_1_Wave1_DMA_BYTES_PER_BURST, WaveDAC8_1_Wave1_DMA_REQUEST_PER_BURST,
 231:.\Generated_Source\PSoC5/WaveDAC8_1.c **** 		HI16(wavePtr), HI16(WaveDAC8_1_DAC8__D));
 232:.\Generated_Source\PSoC5/WaveDAC8_1.c **** 	#endif /* CY_PSOC3 */
 233:.\Generated_Source\PSoC5/WaveDAC8_1.c **** 	
 234:.\Generated_Source\PSoC5/WaveDAC8_1.c **** 	/*
 235:.\Generated_Source\PSoC5/WaveDAC8_1.c **** 	* TD is looping on itself. 
 236:.\Generated_Source\PSoC5/WaveDAC8_1.c ****     * Increment the source address, but not the destination address. 
 237:.\Generated_Source\PSoC5/WaveDAC8_1.c **** 	*/
 238:.\Generated_Source\PSoC5/WaveDAC8_1.c **** 	(void)CyDmaTdSetConfiguration(WaveDAC8_1_Wave1TD, sampleSize, WaveDAC8_1_Wave1TD, 
 135              		.loc 1 238 0
 136 0018 A278     		ldrb	r2, [r4, #2]	@ zero_extendqisi2
 137 001a 1046     		mov	r0, r2
 138 001c 3146     		mov	r1, r6
 139 001e 0123     		movs	r3, #1
 140 0020 FFF7FEFF 		bl	CyDmaTdSetConfiguration
 141              	.LVL13:
 239:.\Generated_Source\PSoC5/WaveDAC8_1.c ****                                     (uint8)CY_DMA_TD_INC_SRC_ADR | (uint8)WaveDAC8_1_Wave1_DMA__TD_
 240:.\Generated_Source\PSoC5/WaveDAC8_1.c **** 	
 241:.\Generated_Source\PSoC5/WaveDAC8_1.c **** 	/* Set the TD source and destination address */
 242:.\Generated_Source\PSoC5/WaveDAC8_1.c **** 	(void)CyDmaTdSetAddress(WaveDAC8_1_Wave1TD, LO16((uint32)wavePtr), LO16(WaveDAC8_1_DAC8__D));
 142              		.loc 1 242 0
 143 0024 A078     		ldrb	r0, [r4, #2]	@ zero_extendqisi2
 144 0026 A9B2     		uxth	r1, r5
 145 0028 45F68132 		movw	r2, #23425
 146 002c FFF7FEFF 		bl	CyDmaTdSetAddress
 147              	.LVL14:
 243:.\Generated_Source\PSoC5/WaveDAC8_1.c **** 	
 244:.\Generated_Source\PSoC5/WaveDAC8_1.c **** 	/* Associate the TD with the channel */
 245:.\Generated_Source\PSoC5/WaveDAC8_1.c **** 	(void)CyDmaChSetInitialTd(WaveDAC8_1_Wave1Chan, WaveDAC8_1_Wave1TD);
 148              		.loc 1 245 0
 149 0030 2078     		ldrb	r0, [r4]	@ zero_extendqisi2
 150 0032 A178     		ldrb	r1, [r4, #2]	@ zero_extendqisi2
 151 0034 FFF7FEFF 		bl	CyDmaChSetInitialTd
 152              	.LVL15:
 153 0038 70BD     		pop	{r4, r5, r6, pc}
 154              	.LVL16:
ARM GAS  C:\Users\doug_000\AppData\Local\Temp\cc4MU8OV.s 			page 8


 155              	.L12:
 156 003a 00BF     		.align	2
 157              	.L11:
 158 003c 00000000 		.word	.LANCHOR0
 159              		.cfi_endproc
 160              	.LFE5:
 161              		.size	WaveDAC8_1_Wave1Setup, .-WaveDAC8_1_Wave1Setup
 162              		.section	.text.WaveDAC8_1_Wave2Setup,"ax",%progbits
 163              		.align	2
 164              		.global	WaveDAC8_1_Wave2Setup
 165              		.thumb
 166              		.thumb_func
 167              		.type	WaveDAC8_1_Wave2Setup, %function
 168              	WaveDAC8_1_Wave2Setup:
 169              	.LFB6:
 246:.\Generated_Source\PSoC5/WaveDAC8_1.c **** }
 247:.\Generated_Source\PSoC5/WaveDAC8_1.c **** 
 248:.\Generated_Source\PSoC5/WaveDAC8_1.c **** 
 249:.\Generated_Source\PSoC5/WaveDAC8_1.c **** /*******************************************************************************
 250:.\Generated_Source\PSoC5/WaveDAC8_1.c **** * Function Name: WaveDAC8_1_Wave2Setup
 251:.\Generated_Source\PSoC5/WaveDAC8_1.c **** ********************************************************************************
 252:.\Generated_Source\PSoC5/WaveDAC8_1.c **** *
 253:.\Generated_Source\PSoC5/WaveDAC8_1.c **** * Summary:
 254:.\Generated_Source\PSoC5/WaveDAC8_1.c **** *  Sets pointer and size for waveform 2.                                    
 255:.\Generated_Source\PSoC5/WaveDAC8_1.c **** *
 256:.\Generated_Source\PSoC5/WaveDAC8_1.c **** * Parameters:  
 257:.\Generated_Source\PSoC5/WaveDAC8_1.c **** *  uint8 * WavePtr:     Pointer to the waveform array.
 258:.\Generated_Source\PSoC5/WaveDAC8_1.c **** *  uint16  SampleSize:  The amount of samples in the waveform.
 259:.\Generated_Source\PSoC5/WaveDAC8_1.c **** *
 260:.\Generated_Source\PSoC5/WaveDAC8_1.c **** * Return: 
 261:.\Generated_Source\PSoC5/WaveDAC8_1.c **** *  None
 262:.\Generated_Source\PSoC5/WaveDAC8_1.c **** *
 263:.\Generated_Source\PSoC5/WaveDAC8_1.c **** *******************************************************************************/
 264:.\Generated_Source\PSoC5/WaveDAC8_1.c **** void WaveDAC8_1_Wave2Setup(const uint8 * wavePtr, uint16 sampleSize)
 265:.\Generated_Source\PSoC5/WaveDAC8_1.c ****  
 266:.\Generated_Source\PSoC5/WaveDAC8_1.c **** {
 170              		.loc 1 266 0
 171              		.cfi_startproc
 172              		@ args = 0, pretend = 0, frame = 0
 173              		@ frame_needed = 0, uses_anonymous_args = 0
 174              	.LVL17:
 175 0000 70B5     		push	{r4, r5, r6, lr}
 176              		.cfi_def_cfa_offset 16
 177              		.cfi_offset 4, -16
 178              		.cfi_offset 5, -12
 179              		.cfi_offset 6, -8
 180              		.cfi_offset 14, -4
 181 0002 0546     		mov	r5, r0
 182 0004 0E46     		mov	r6, r1
 267:.\Generated_Source\PSoC5/WaveDAC8_1.c **** 	#if (CY_PSOC3)
 268:.\Generated_Source\PSoC5/WaveDAC8_1.c **** 		uint16 memoryType; /* determining the source memory type */
 269:.\Generated_Source\PSoC5/WaveDAC8_1.c **** 		memoryType = (WaveDAC8_1_HI16FLASHPTR == HI16(wavePtr)) ? HI16(CYDEV_FLS_BASE) : HI16(CYDEV_SRAM_
 270:.\Generated_Source\PSoC5/WaveDAC8_1.c **** 			
 271:.\Generated_Source\PSoC5/WaveDAC8_1.c **** 		WaveDAC8_1_Wave2Chan = WaveDAC8_1_Wave2_DMA_DmaInitialize(
 272:.\Generated_Source\PSoC5/WaveDAC8_1.c **** 		WaveDAC8_1_Wave2_DMA_BYTES_PER_BURST, WaveDAC8_1_Wave2_DMA_REQUEST_PER_BURST,
 273:.\Generated_Source\PSoC5/WaveDAC8_1.c **** 		memoryType, HI16(CYDEV_PERIPH_BASE));
 274:.\Generated_Source\PSoC5/WaveDAC8_1.c **** 	#else /* PSoC 5 */
ARM GAS  C:\Users\doug_000\AppData\Local\Temp\cc4MU8OV.s 			page 9


 275:.\Generated_Source\PSoC5/WaveDAC8_1.c **** 		WaveDAC8_1_Wave2Chan = WaveDAC8_1_Wave2_DMA_DmaInitialize(
 183              		.loc 1 275 0
 184 0006 0120     		movs	r0, #1
 185              	.LVL18:
 186 0008 0146     		mov	r1, r0
 187              	.LVL19:
 188 000a 2A0C     		lsrs	r2, r5, #16
 189 000c 4FF48043 		mov	r3, #16384
 190 0010 FFF7FEFF 		bl	WaveDAC8_1_Wave2_DMA_DmaInitialize
 191              	.LVL20:
 192 0014 094C     		ldr	r4, .L15
 193 0016 6070     		strb	r0, [r4, #1]
 276:.\Generated_Source\PSoC5/WaveDAC8_1.c **** 		WaveDAC8_1_Wave2_DMA_BYTES_PER_BURST, WaveDAC8_1_Wave2_DMA_REQUEST_PER_BURST,
 277:.\Generated_Source\PSoC5/WaveDAC8_1.c **** 		HI16(wavePtr), HI16(WaveDAC8_1_DAC8__D));
 278:.\Generated_Source\PSoC5/WaveDAC8_1.c **** 	#endif /* CY_PSOC3 */
 279:.\Generated_Source\PSoC5/WaveDAC8_1.c **** 	
 280:.\Generated_Source\PSoC5/WaveDAC8_1.c **** 	/*
 281:.\Generated_Source\PSoC5/WaveDAC8_1.c **** 	* TD is looping on itself. 
 282:.\Generated_Source\PSoC5/WaveDAC8_1.c **** 	* Increment the source address, but not the destination address. 
 283:.\Generated_Source\PSoC5/WaveDAC8_1.c **** 	*/
 284:.\Generated_Source\PSoC5/WaveDAC8_1.c **** 	(void)CyDmaTdSetConfiguration(WaveDAC8_1_Wave2TD, sampleSize, WaveDAC8_1_Wave2TD, 
 194              		.loc 1 284 0
 195 0018 E278     		ldrb	r2, [r4, #3]	@ zero_extendqisi2
 196 001a 1046     		mov	r0, r2
 197 001c 3146     		mov	r1, r6
 198 001e 0123     		movs	r3, #1
 199 0020 FFF7FEFF 		bl	CyDmaTdSetConfiguration
 200              	.LVL21:
 285:.\Generated_Source\PSoC5/WaveDAC8_1.c ****                                     (uint8)CY_DMA_TD_INC_SRC_ADR | (uint8)WaveDAC8_1_Wave2_DMA__TD_
 286:.\Generated_Source\PSoC5/WaveDAC8_1.c **** 	
 287:.\Generated_Source\PSoC5/WaveDAC8_1.c **** 	/* Set the TD source and destination address */
 288:.\Generated_Source\PSoC5/WaveDAC8_1.c **** 	(void)CyDmaTdSetAddress(WaveDAC8_1_Wave2TD, LO16((uint32)wavePtr), LO16(WaveDAC8_1_DAC8__D));
 201              		.loc 1 288 0
 202 0024 E078     		ldrb	r0, [r4, #3]	@ zero_extendqisi2
 203 0026 A9B2     		uxth	r1, r5
 204 0028 45F68132 		movw	r2, #23425
 205 002c FFF7FEFF 		bl	CyDmaTdSetAddress
 206              	.LVL22:
 289:.\Generated_Source\PSoC5/WaveDAC8_1.c **** 	
 290:.\Generated_Source\PSoC5/WaveDAC8_1.c **** 	/* Associate the TD with the channel */
 291:.\Generated_Source\PSoC5/WaveDAC8_1.c **** 	(void)CyDmaChSetInitialTd(WaveDAC8_1_Wave2Chan, WaveDAC8_1_Wave2TD);
 207              		.loc 1 291 0
 208 0030 6078     		ldrb	r0, [r4, #1]	@ zero_extendqisi2
 209 0032 E178     		ldrb	r1, [r4, #3]	@ zero_extendqisi2
 210 0034 FFF7FEFF 		bl	CyDmaChSetInitialTd
 211              	.LVL23:
 212 0038 70BD     		pop	{r4, r5, r6, pc}
 213              	.LVL24:
 214              	.L16:
 215 003a 00BF     		.align	2
 216              	.L15:
 217 003c 00000000 		.word	.LANCHOR0
 218              		.cfi_endproc
 219              	.LFE6:
 220              		.size	WaveDAC8_1_Wave2Setup, .-WaveDAC8_1_Wave2Setup
 221              		.section	.text.WaveDAC8_1_Init,"ax",%progbits
 222              		.align	2
ARM GAS  C:\Users\doug_000\AppData\Local\Temp\cc4MU8OV.s 			page 10


 223              		.global	WaveDAC8_1_Init
 224              		.thumb
 225              		.thumb_func
 226              		.type	WaveDAC8_1_Init, %function
 227              	WaveDAC8_1_Init:
 228              	.LFB0:
  44:.\Generated_Source\PSoC5/WaveDAC8_1.c **** 	WaveDAC8_1_VDAC8_Init();
 229              		.loc 1 44 0
 230              		.cfi_startproc
 231              		@ args = 0, pretend = 0, frame = 0
 232              		@ frame_needed = 0, uses_anonymous_args = 0
 233 0000 10B5     		push	{r4, lr}
 234              		.cfi_def_cfa_offset 8
 235              		.cfi_offset 4, -8
 236              		.cfi_offset 14, -4
  45:.\Generated_Source\PSoC5/WaveDAC8_1.c **** 	WaveDAC8_1_VDAC8_SetSpeed(WaveDAC8_1_HIGHSPEED);
 237              		.loc 1 45 0
 238 0002 FFF7FEFF 		bl	WaveDAC8_1_VDAC8_Init
 239              	.LVL25:
  46:.\Generated_Source\PSoC5/WaveDAC8_1.c **** 	WaveDAC8_1_VDAC8_SetRange(WaveDAC8_1_DAC_RANGE);
 240              		.loc 1 46 0
 241 0006 0220     		movs	r0, #2
 242 0008 FFF7FEFF 		bl	WaveDAC8_1_VDAC8_SetSpeed
 243              	.LVL26:
  47:.\Generated_Source\PSoC5/WaveDAC8_1.c **** 
 244              		.loc 1 47 0
 245 000c 0020     		movs	r0, #0
 246 000e FFF7FEFF 		bl	WaveDAC8_1_VDAC8_SetRange
 247              	.LVL27:
  58:.\Generated_Source\PSoC5/WaveDAC8_1.c **** 	WaveDAC8_1_Wave2TD = CyDmaTdAllocate();
 248              		.loc 1 58 0
 249 0012 FFF7FEFF 		bl	CyDmaTdAllocate
 250              	.LVL28:
 251 0016 084C     		ldr	r4, .L19
 252 0018 A070     		strb	r0, [r4, #2]
  59:.\Generated_Source\PSoC5/WaveDAC8_1.c **** 	
 253              		.loc 1 59 0
 254 001a FFF7FEFF 		bl	CyDmaTdAllocate
 255              	.LVL29:
 256 001e E070     		strb	r0, [r4, #3]
  62:.\Generated_Source\PSoC5/WaveDAC8_1.c **** 	WaveDAC8_1_Wave2Setup(WaveDAC8_1_wave2, WaveDAC8_1_WAVE2_LENGTH) ;
 257              		.loc 1 62 0
 258 0020 064C     		ldr	r4, .L19+4
 259 0022 2046     		mov	r0, r4
 260 0024 4FF4C871 		mov	r1, #400
 261 0028 FFF7FEFF 		bl	WaveDAC8_1_Wave1Setup
 262              	.LVL30:
  63:.\Generated_Source\PSoC5/WaveDAC8_1.c **** 	
 263              		.loc 1 63 0
 264 002c 04F5C870 		add	r0, r4, #400
 265 0030 6421     		movs	r1, #100
 266 0032 FFF7FEFF 		bl	WaveDAC8_1_Wave2Setup
 267              	.LVL31:
 268 0036 10BD     		pop	{r4, pc}
 269              	.L20:
 270              		.align	2
 271              	.L19:
ARM GAS  C:\Users\doug_000\AppData\Local\Temp\cc4MU8OV.s 			page 11


 272 0038 00000000 		.word	.LANCHOR0
 273 003c 00000000 		.word	.LANCHOR1
 274              		.cfi_endproc
 275              	.LFE0:
 276              		.size	WaveDAC8_1_Init, .-WaveDAC8_1_Init
 277              		.section	.text.WaveDAC8_1_Start,"ax",%progbits
 278              		.align	2
 279              		.global	WaveDAC8_1_Start
 280              		.thumb
 281              		.thumb_func
 282              		.type	WaveDAC8_1_Start, %function
 283              	WaveDAC8_1_Start:
 284              	.LFB2:
 130:.\Generated_Source\PSoC5/WaveDAC8_1.c **** 	/* If not Initialized then initialize all required hardware and software */
 285              		.loc 1 130 0
 286              		.cfi_startproc
 287              		@ args = 0, pretend = 0, frame = 0
 288              		@ frame_needed = 0, uses_anonymous_args = 0
 289 0000 08B5     		push	{r3, lr}
 290              		.cfi_def_cfa_offset 8
 291              		.cfi_offset 3, -8
 292              		.cfi_offset 14, -4
 132:.\Generated_Source\PSoC5/WaveDAC8_1.c **** 	{
 293              		.loc 1 132 0
 294 0002 054B     		ldr	r3, .L24
 295 0004 1B79     		ldrb	r3, [r3, #4]	@ zero_extendqisi2
 296 0006 23B9     		cbnz	r3, .L22
 134:.\Generated_Source\PSoC5/WaveDAC8_1.c **** 		WaveDAC8_1_initVar = 1u;
 297              		.loc 1 134 0
 298 0008 FFF7FEFF 		bl	WaveDAC8_1_Init
 299              	.LVL32:
 135:.\Generated_Source\PSoC5/WaveDAC8_1.c **** 	}
 300              		.loc 1 135 0
 301 000c 0122     		movs	r2, #1
 302 000e 024B     		ldr	r3, .L24
 303 0010 1A71     		strb	r2, [r3, #4]
 304              	.L22:
 138:.\Generated_Source\PSoC5/WaveDAC8_1.c **** }
 305              		.loc 1 138 0
 306 0012 FFF7FEFF 		bl	WaveDAC8_1_Enable
 307              	.LVL33:
 308 0016 08BD     		pop	{r3, pc}
 309              	.L25:
 310              		.align	2
 311              	.L24:
 312 0018 00000000 		.word	.LANCHOR0
 313              		.cfi_endproc
 314              	.LFE2:
 315              		.size	WaveDAC8_1_Start, .-WaveDAC8_1_Start
 316              		.section	.text.WaveDAC8_1_StartEx,"ax",%progbits
 317              		.align	2
 318              		.global	WaveDAC8_1_StartEx
 319              		.thumb
 320              		.thumb_func
 321              		.type	WaveDAC8_1_StartEx, %function
 322              	WaveDAC8_1_StartEx:
 323              	.LFB3:
ARM GAS  C:\Users\doug_000\AppData\Local\Temp\cc4MU8OV.s 			page 12


 165:.\Generated_Source\PSoC5/WaveDAC8_1.c **** 	WaveDAC8_1_Wave1Setup(wavePtr1, sampleSize1);
 324              		.loc 1 165 0
 325              		.cfi_startproc
 326              		@ args = 0, pretend = 0, frame = 0
 327              		@ frame_needed = 0, uses_anonymous_args = 0
 328              	.LVL34:
 329 0000 38B5     		push	{r3, r4, r5, lr}
 330              		.cfi_def_cfa_offset 16
 331              		.cfi_offset 3, -16
 332              		.cfi_offset 4, -12
 333              		.cfi_offset 5, -8
 334              		.cfi_offset 14, -4
 335 0002 1546     		mov	r5, r2
 336 0004 1C46     		mov	r4, r3
 166:.\Generated_Source\PSoC5/WaveDAC8_1.c **** 	WaveDAC8_1_Wave2Setup(wavePtr2, sampleSize2);
 337              		.loc 1 166 0
 338 0006 FFF7FEFF 		bl	WaveDAC8_1_Wave1Setup
 339              	.LVL35:
 167:.\Generated_Source\PSoC5/WaveDAC8_1.c **** 	WaveDAC8_1_Start();
 340              		.loc 1 167 0
 341 000a 2846     		mov	r0, r5
 342 000c 2146     		mov	r1, r4
 343 000e FFF7FEFF 		bl	WaveDAC8_1_Wave2Setup
 344              	.LVL36:
 168:.\Generated_Source\PSoC5/WaveDAC8_1.c **** }
 345              		.loc 1 168 0
 346 0012 FFF7FEFF 		bl	WaveDAC8_1_Start
 347              	.LVL37:
 348 0016 38BD     		pop	{r3, r4, r5, pc}
 349              		.cfi_endproc
 350              	.LFE3:
 351              		.size	WaveDAC8_1_StartEx, .-WaveDAC8_1_StartEx
 352              		.global	WaveDAC8_1_wave2
 353              		.global	WaveDAC8_1_wave1
 354              		.global	WaveDAC8_1_initVar
 355              		.section	.rodata
 356              		.align	2
 357              		.set	.LANCHOR1,. + 0
 358              		.type	WaveDAC8_1_wave1, %object
 359              		.size	WaveDAC8_1_wave1, 400
 360              	WaveDAC8_1_wave1:
 361 0000 80       		.byte	-128
 362 0001 81       		.byte	-127
 363 0002 83       		.byte	-125
 364 0003 85       		.byte	-123
 365 0004 87       		.byte	-121
 366 0005 89       		.byte	-119
 367 0006 8B       		.byte	-117
 368 0007 8D       		.byte	-115
 369 0008 8F       		.byte	-113
 370 0009 91       		.byte	-111
 371 000a 93       		.byte	-109
 372 000b 95       		.byte	-107
 373 000c 96       		.byte	-106
 374 000d 98       		.byte	-104
 375 000e 9A       		.byte	-102
 376 000f 9C       		.byte	-100
ARM GAS  C:\Users\doug_000\AppData\Local\Temp\cc4MU8OV.s 			page 13


 377 0010 9E       		.byte	-98
 378 0011 A0       		.byte	-96
 379 0012 A2       		.byte	-94
 380 0013 A4       		.byte	-92
 381 0014 A5       		.byte	-91
 382 0015 A7       		.byte	-89
 383 0016 A9       		.byte	-87
 384 0017 AB       		.byte	-85
 385 0018 AD       		.byte	-83
 386 0019 AE       		.byte	-82
 387 001a B0       		.byte	-80
 388 001b B2       		.byte	-78
 389 001c B4       		.byte	-76
 390 001d B5       		.byte	-75
 391 001e B7       		.byte	-73
 392 001f B9       		.byte	-71
 393 0020 BB       		.byte	-69
 394 0021 BC       		.byte	-68
 395 0022 BE       		.byte	-66
 396 0023 C0       		.byte	-64
 397 0024 C1       		.byte	-63
 398 0025 C3       		.byte	-61
 399 0026 C4       		.byte	-60
 400 0027 C6       		.byte	-58
 401 0028 C8       		.byte	-56
 402 0029 C9       		.byte	-55
 403 002a CB       		.byte	-53
 404 002b CC       		.byte	-52
 405 002c CE       		.byte	-50
 406 002d CF       		.byte	-49
 407 002e D1       		.byte	-47
 408 002f D2       		.byte	-46
 409 0030 D3       		.byte	-45
 410 0031 D5       		.byte	-43
 411 0032 D6       		.byte	-42
 412 0033 D7       		.byte	-41
 413 0034 D9       		.byte	-39
 414 0035 DA       		.byte	-38
 415 0036 DB       		.byte	-37
 416 0037 DD       		.byte	-35
 417 0038 DE       		.byte	-34
 418 0039 DF       		.byte	-33
 419 003a E0       		.byte	-32
 420 003b E1       		.byte	-31
 421 003c E3       		.byte	-29
 422 003d E4       		.byte	-28
 423 003e E5       		.byte	-27
 424 003f E6       		.byte	-26
 425 0040 E7       		.byte	-25
 426 0041 E8       		.byte	-24
 427 0042 E9       		.byte	-23
 428 0043 EA       		.byte	-22
 429 0044 EB       		.byte	-21
 430 0045 EC       		.byte	-20
 431 0046 ED       		.byte	-19
 432 0047 EE       		.byte	-18
 433 0048 EE       		.byte	-18
ARM GAS  C:\Users\doug_000\AppData\Local\Temp\cc4MU8OV.s 			page 14


 434 0049 EF       		.byte	-17
 435 004a F0       		.byte	-16
 436 004b F1       		.byte	-15
 437 004c F1       		.byte	-15
 438 004d F2       		.byte	-14
 439 004e F3       		.byte	-13
 440 004f F3       		.byte	-13
 441 0050 F4       		.byte	-12
 442 0051 F5       		.byte	-11
 443 0052 F5       		.byte	-11
 444 0053 F6       		.byte	-10
 445 0054 F6       		.byte	-10
 446 0055 F7       		.byte	-9
 447 0056 F7       		.byte	-9
 448 0057 F7       		.byte	-9
 449 0058 F8       		.byte	-8
 450 0059 F8       		.byte	-8
 451 005a F8       		.byte	-8
 452 005b F9       		.byte	-7
 453 005c F9       		.byte	-7
 454 005d F9       		.byte	-7
 455 005e F9       		.byte	-7
 456 005f FA       		.byte	-6
 457 0060 FA       		.byte	-6
 458 0061 FA       		.byte	-6
 459 0062 FA       		.byte	-6
 460 0063 FA       		.byte	-6
 461 0064 FA       		.byte	-6
 462 0065 FA       		.byte	-6
 463 0066 FA       		.byte	-6
 464 0067 FA       		.byte	-6
 465 0068 FA       		.byte	-6
 466 0069 FA       		.byte	-6
 467 006a F9       		.byte	-7
 468 006b F9       		.byte	-7
 469 006c F9       		.byte	-7
 470 006d F9       		.byte	-7
 471 006e F8       		.byte	-8
 472 006f F8       		.byte	-8
 473 0070 F8       		.byte	-8
 474 0071 F7       		.byte	-9
 475 0072 F7       		.byte	-9
 476 0073 F7       		.byte	-9
 477 0074 F6       		.byte	-10
 478 0075 F6       		.byte	-10
 479 0076 F5       		.byte	-11
 480 0077 F5       		.byte	-11
 481 0078 F4       		.byte	-12
 482 0079 F3       		.byte	-13
 483 007a F3       		.byte	-13
 484 007b F2       		.byte	-14
 485 007c F1       		.byte	-15
 486 007d F1       		.byte	-15
 487 007e F0       		.byte	-16
 488 007f EF       		.byte	-17
 489 0080 EE       		.byte	-18
 490 0081 EE       		.byte	-18
ARM GAS  C:\Users\doug_000\AppData\Local\Temp\cc4MU8OV.s 			page 15


 491 0082 ED       		.byte	-19
 492 0083 EC       		.byte	-20
 493 0084 EB       		.byte	-21
 494 0085 EA       		.byte	-22
 495 0086 E9       		.byte	-23
 496 0087 E8       		.byte	-24
 497 0088 E7       		.byte	-25
 498 0089 E6       		.byte	-26
 499 008a E5       		.byte	-27
 500 008b E4       		.byte	-28
 501 008c E3       		.byte	-29
 502 008d E1       		.byte	-31
 503 008e E0       		.byte	-32
 504 008f DF       		.byte	-33
 505 0090 DE       		.byte	-34
 506 0091 DD       		.byte	-35
 507 0092 DB       		.byte	-37
 508 0093 DA       		.byte	-38
 509 0094 D9       		.byte	-39
 510 0095 D7       		.byte	-41
 511 0096 D6       		.byte	-42
 512 0097 D5       		.byte	-43
 513 0098 D3       		.byte	-45
 514 0099 D2       		.byte	-46
 515 009a D1       		.byte	-47
 516 009b CF       		.byte	-49
 517 009c CE       		.byte	-50
 518 009d CC       		.byte	-52
 519 009e CB       		.byte	-53
 520 009f C9       		.byte	-55
 521 00a0 C8       		.byte	-56
 522 00a1 C6       		.byte	-58
 523 00a2 C4       		.byte	-60
 524 00a3 C3       		.byte	-61
 525 00a4 C1       		.byte	-63
 526 00a5 C0       		.byte	-64
 527 00a6 BE       		.byte	-66
 528 00a7 BC       		.byte	-68
 529 00a8 BB       		.byte	-69
 530 00a9 B9       		.byte	-71
 531 00aa B7       		.byte	-73
 532 00ab B5       		.byte	-75
 533 00ac B4       		.byte	-76
 534 00ad B2       		.byte	-78
 535 00ae B0       		.byte	-80
 536 00af AE       		.byte	-82
 537 00b0 AD       		.byte	-83
 538 00b1 AB       		.byte	-85
 539 00b2 A9       		.byte	-87
 540 00b3 A7       		.byte	-89
 541 00b4 A5       		.byte	-91
 542 00b5 A4       		.byte	-92
 543 00b6 A2       		.byte	-94
 544 00b7 A0       		.byte	-96
 545 00b8 9E       		.byte	-98
 546 00b9 9C       		.byte	-100
 547 00ba 9A       		.byte	-102
ARM GAS  C:\Users\doug_000\AppData\Local\Temp\cc4MU8OV.s 			page 16


 548 00bb 98       		.byte	-104
 549 00bc 96       		.byte	-106
 550 00bd 95       		.byte	-107
 551 00be 93       		.byte	-109
 552 00bf 91       		.byte	-111
 553 00c0 8F       		.byte	-113
 554 00c1 8D       		.byte	-115
 555 00c2 8B       		.byte	-117
 556 00c3 89       		.byte	-119
 557 00c4 87       		.byte	-121
 558 00c5 85       		.byte	-123
 559 00c6 83       		.byte	-125
 560 00c7 81       		.byte	-127
 561 00c8 80       		.byte	-128
 562 00c9 7E       		.byte	126
 563 00ca 7C       		.byte	124
 564 00cb 7A       		.byte	122
 565 00cc 78       		.byte	120
 566 00cd 76       		.byte	118
 567 00ce 74       		.byte	116
 568 00cf 72       		.byte	114
 569 00d0 70       		.byte	112
 570 00d1 6E       		.byte	110
 571 00d2 6C       		.byte	108
 572 00d3 6A       		.byte	106
 573 00d4 69       		.byte	105
 574 00d5 67       		.byte	103
 575 00d6 65       		.byte	101
 576 00d7 63       		.byte	99
 577 00d8 61       		.byte	97
 578 00d9 5F       		.byte	95
 579 00da 5D       		.byte	93
 580 00db 5B       		.byte	91
 581 00dc 5A       		.byte	90
 582 00dd 58       		.byte	88
 583 00de 56       		.byte	86
 584 00df 54       		.byte	84
 585 00e0 52       		.byte	82
 586 00e1 51       		.byte	81
 587 00e2 4F       		.byte	79
 588 00e3 4D       		.byte	77
 589 00e4 4B       		.byte	75
 590 00e5 4A       		.byte	74
 591 00e6 48       		.byte	72
 592 00e7 46       		.byte	70
 593 00e8 44       		.byte	68
 594 00e9 43       		.byte	67
 595 00ea 41       		.byte	65
 596 00eb 3F       		.byte	63
 597 00ec 3E       		.byte	62
 598 00ed 3C       		.byte	60
 599 00ee 3B       		.byte	59
 600 00ef 39       		.byte	57
 601 00f0 37       		.byte	55
 602 00f1 36       		.byte	54
 603 00f2 34       		.byte	52
 604 00f3 33       		.byte	51
ARM GAS  C:\Users\doug_000\AppData\Local\Temp\cc4MU8OV.s 			page 17


 605 00f4 31       		.byte	49
 606 00f5 30       		.byte	48
 607 00f6 2E       		.byte	46
 608 00f7 2D       		.byte	45
 609 00f8 2C       		.byte	44
 610 00f9 2A       		.byte	42
 611 00fa 29       		.byte	41
 612 00fb 28       		.byte	40
 613 00fc 26       		.byte	38
 614 00fd 25       		.byte	37
 615 00fe 24       		.byte	36
 616 00ff 22       		.byte	34
 617 0100 21       		.byte	33
 618 0101 20       		.byte	32
 619 0102 1F       		.byte	31
 620 0103 1E       		.byte	30
 621 0104 1C       		.byte	28
 622 0105 1B       		.byte	27
 623 0106 1A       		.byte	26
 624 0107 19       		.byte	25
 625 0108 18       		.byte	24
 626 0109 17       		.byte	23
 627 010a 16       		.byte	22
 628 010b 15       		.byte	21
 629 010c 14       		.byte	20
 630 010d 13       		.byte	19
 631 010e 12       		.byte	18
 632 010f 11       		.byte	17
 633 0110 11       		.byte	17
 634 0111 10       		.byte	16
 635 0112 0F       		.byte	15
 636 0113 0E       		.byte	14
 637 0114 0E       		.byte	14
 638 0115 0D       		.byte	13
 639 0116 0C       		.byte	12
 640 0117 0C       		.byte	12
 641 0118 0B       		.byte	11
 642 0119 0A       		.byte	10
 643 011a 0A       		.byte	10
 644 011b 09       		.byte	9
 645 011c 09       		.byte	9
 646 011d 08       		.byte	8
 647 011e 08       		.byte	8
 648 011f 08       		.byte	8
 649 0120 07       		.byte	7
 650 0121 07       		.byte	7
 651 0122 07       		.byte	7
 652 0123 06       		.byte	6
 653 0124 06       		.byte	6
 654 0125 06       		.byte	6
 655 0126 06       		.byte	6
 656 0127 05       		.byte	5
 657 0128 05       		.byte	5
 658 0129 05       		.byte	5
 659 012a 05       		.byte	5
 660 012b 05       		.byte	5
 661 012c 05       		.byte	5
ARM GAS  C:\Users\doug_000\AppData\Local\Temp\cc4MU8OV.s 			page 18


 662 012d 05       		.byte	5
 663 012e 05       		.byte	5
 664 012f 05       		.byte	5
 665 0130 05       		.byte	5
 666 0131 05       		.byte	5
 667 0132 06       		.byte	6
 668 0133 06       		.byte	6
 669 0134 06       		.byte	6
 670 0135 06       		.byte	6
 671 0136 07       		.byte	7
 672 0137 07       		.byte	7
 673 0138 07       		.byte	7
 674 0139 08       		.byte	8
 675 013a 08       		.byte	8
 676 013b 08       		.byte	8
 677 013c 09       		.byte	9
 678 013d 09       		.byte	9
 679 013e 0A       		.byte	10
 680 013f 0A       		.byte	10
 681 0140 0B       		.byte	11
 682 0141 0C       		.byte	12
 683 0142 0C       		.byte	12
 684 0143 0D       		.byte	13
 685 0144 0E       		.byte	14
 686 0145 0E       		.byte	14
 687 0146 0F       		.byte	15
 688 0147 10       		.byte	16
 689 0148 11       		.byte	17
 690 0149 11       		.byte	17
 691 014a 12       		.byte	18
 692 014b 13       		.byte	19
 693 014c 14       		.byte	20
 694 014d 15       		.byte	21
 695 014e 16       		.byte	22
 696 014f 17       		.byte	23
 697 0150 18       		.byte	24
 698 0151 19       		.byte	25
 699 0152 1A       		.byte	26
 700 0153 1B       		.byte	27
 701 0154 1C       		.byte	28
 702 0155 1E       		.byte	30
 703 0156 1F       		.byte	31
 704 0157 20       		.byte	32
 705 0158 21       		.byte	33
 706 0159 22       		.byte	34
 707 015a 24       		.byte	36
 708 015b 25       		.byte	37
 709 015c 26       		.byte	38
 710 015d 28       		.byte	40
 711 015e 29       		.byte	41
 712 015f 2A       		.byte	42
 713 0160 2C       		.byte	44
 714 0161 2D       		.byte	45
 715 0162 2E       		.byte	46
 716 0163 30       		.byte	48
 717 0164 31       		.byte	49
 718 0165 33       		.byte	51
ARM GAS  C:\Users\doug_000\AppData\Local\Temp\cc4MU8OV.s 			page 19


 719 0166 34       		.byte	52
 720 0167 36       		.byte	54
 721 0168 37       		.byte	55
 722 0169 39       		.byte	57
 723 016a 3B       		.byte	59
 724 016b 3C       		.byte	60
 725 016c 3E       		.byte	62
 726 016d 3F       		.byte	63
 727 016e 41       		.byte	65
 728 016f 43       		.byte	67
 729 0170 44       		.byte	68
 730 0171 46       		.byte	70
 731 0172 48       		.byte	72
 732 0173 4A       		.byte	74
 733 0174 4B       		.byte	75
 734 0175 4D       		.byte	77
 735 0176 4F       		.byte	79
 736 0177 51       		.byte	81
 737 0178 52       		.byte	82
 738 0179 54       		.byte	84
 739 017a 56       		.byte	86
 740 017b 58       		.byte	88
 741 017c 5A       		.byte	90
 742 017d 5B       		.byte	91
 743 017e 5D       		.byte	93
 744 017f 5F       		.byte	95
 745 0180 61       		.byte	97
 746 0181 63       		.byte	99
 747 0182 65       		.byte	101
 748 0183 67       		.byte	103
 749 0184 69       		.byte	105
 750 0185 6A       		.byte	106
 751 0186 6C       		.byte	108
 752 0187 6E       		.byte	110
 753 0188 70       		.byte	112
 754 0189 72       		.byte	114
 755 018a 74       		.byte	116
 756 018b 76       		.byte	118
 757 018c 78       		.byte	120
 758 018d 7A       		.byte	122
 759 018e 7C       		.byte	124
 760 018f 7E       		.byte	126
 761              		.type	WaveDAC8_1_wave2, %object
 762              		.size	WaveDAC8_1_wave2, 100
 763              	WaveDAC8_1_wave2:
 764 0190 80       		.byte	-128
 765 0191 84       		.byte	-124
 766 0192 89       		.byte	-119
 767 0193 8E       		.byte	-114
 768 0194 93       		.byte	-109
 769 0195 98       		.byte	-104
 770 0196 9D       		.byte	-99
 771 0197 A2       		.byte	-94
 772 0198 A7       		.byte	-89
 773 0199 AC       		.byte	-84
 774 019a B0       		.byte	-80
 775 019b B5       		.byte	-75
ARM GAS  C:\Users\doug_000\AppData\Local\Temp\cc4MU8OV.s 			page 20


 776 019c BA       		.byte	-70
 777 019d BF       		.byte	-65
 778 019e C4       		.byte	-60
 779 019f C9       		.byte	-55
 780 01a0 CE       		.byte	-50
 781 01a1 D3       		.byte	-45
 782 01a2 D8       		.byte	-40
 783 01a3 DD       		.byte	-35
 784 01a4 E2       		.byte	-30
 785 01a5 E6       		.byte	-26
 786 01a6 EB       		.byte	-21
 787 01a7 F0       		.byte	-16
 788 01a8 F5       		.byte	-11
 789 01a9 FA       		.byte	-6
 790 01aa F5       		.byte	-11
 791 01ab F0       		.byte	-16
 792 01ac EB       		.byte	-21
 793 01ad E6       		.byte	-26
 794 01ae E2       		.byte	-30
 795 01af DD       		.byte	-35
 796 01b0 D8       		.byte	-40
 797 01b1 D3       		.byte	-45
 798 01b2 CE       		.byte	-50
 799 01b3 C9       		.byte	-55
 800 01b4 C4       		.byte	-60
 801 01b5 BF       		.byte	-65
 802 01b6 BA       		.byte	-70
 803 01b7 B5       		.byte	-75
 804 01b8 B0       		.byte	-80
 805 01b9 AC       		.byte	-84
 806 01ba A7       		.byte	-89
 807 01bb A2       		.byte	-94
 808 01bc 9D       		.byte	-99
 809 01bd 98       		.byte	-104
 810 01be 93       		.byte	-109
 811 01bf 8E       		.byte	-114
 812 01c0 89       		.byte	-119
 813 01c1 84       		.byte	-124
 814 01c2 80       		.byte	-128
 815 01c3 7B       		.byte	123
 816 01c4 76       		.byte	118
 817 01c5 71       		.byte	113
 818 01c6 6C       		.byte	108
 819 01c7 67       		.byte	103
 820 01c8 62       		.byte	98
 821 01c9 5D       		.byte	93
 822 01ca 58       		.byte	88
 823 01cb 53       		.byte	83
 824 01cc 4F       		.byte	79
 825 01cd 4A       		.byte	74
 826 01ce 45       		.byte	69
 827 01cf 40       		.byte	64
 828 01d0 3B       		.byte	59
 829 01d1 36       		.byte	54
 830 01d2 31       		.byte	49
 831 01d3 2C       		.byte	44
 832 01d4 27       		.byte	39
ARM GAS  C:\Users\doug_000\AppData\Local\Temp\cc4MU8OV.s 			page 21


 833 01d5 22       		.byte	34
 834 01d6 1E       		.byte	30
 835 01d7 19       		.byte	25
 836 01d8 14       		.byte	20
 837 01d9 0F       		.byte	15
 838 01da 0A       		.byte	10
 839 01db 05       		.byte	5
 840 01dc 0A       		.byte	10
 841 01dd 0F       		.byte	15
 842 01de 14       		.byte	20
 843 01df 19       		.byte	25
 844 01e0 1E       		.byte	30
 845 01e1 22       		.byte	34
 846 01e2 27       		.byte	39
 847 01e3 2C       		.byte	44
 848 01e4 31       		.byte	49
 849 01e5 36       		.byte	54
 850 01e6 3B       		.byte	59
 851 01e7 40       		.byte	64
 852 01e8 45       		.byte	69
 853 01e9 4A       		.byte	74
 854 01ea 4F       		.byte	79
 855 01eb 53       		.byte	83
 856 01ec 58       		.byte	88
 857 01ed 5D       		.byte	93
 858 01ee 62       		.byte	98
 859 01ef 67       		.byte	103
 860 01f0 6C       		.byte	108
 861 01f1 71       		.byte	113
 862 01f2 76       		.byte	118
 863 01f3 7B       		.byte	123
 864              		.bss
 865              		.set	.LANCHOR0,. + 0
 866              		.type	WaveDAC8_1_Wave1Chan, %object
 867              		.size	WaveDAC8_1_Wave1Chan, 1
 868              	WaveDAC8_1_Wave1Chan:
 869 0000 00       		.space	1
 870              		.type	WaveDAC8_1_Wave2Chan, %object
 871              		.size	WaveDAC8_1_Wave2Chan, 1
 872              	WaveDAC8_1_Wave2Chan:
 873 0001 00       		.space	1
 874              		.type	WaveDAC8_1_Wave1TD, %object
 875              		.size	WaveDAC8_1_Wave1TD, 1
 876              	WaveDAC8_1_Wave1TD:
 877 0002 00       		.space	1
 878              		.type	WaveDAC8_1_Wave2TD, %object
 879              		.size	WaveDAC8_1_Wave2TD, 1
 880              	WaveDAC8_1_Wave2TD:
 881 0003 00       		.space	1
 882              		.type	WaveDAC8_1_initVar, %object
 883              		.size	WaveDAC8_1_initVar, 1
 884              	WaveDAC8_1_initVar:
 885 0004 00       		.space	1
 886              		.text
 887              	.Letext0:
 888              		.file 2 ".\\Generated_Source\\PSoC5\\cytypes.h"
 889              		.file 3 "Generated_Source\\PSoC5/WaveDAC8_1_VDAC8.h"
ARM GAS  C:\Users\doug_000\AppData\Local\Temp\cc4MU8OV.s 			page 22


 890              		.file 4 "Generated_Source\\PSoC5/WaveDAC8_1_DacClk.h"
 891              		.file 5 "Generated_Source\\PSoC5/CYDMAC.H"
 892              		.file 6 "Generated_Source\\PSoC5/WaveDAC8_1_Wave1_DMA_dma.h"
 893              		.file 7 "Generated_Source\\PSoC5/WaveDAC8_1_Wave2_DMA_dma.h"