ARM GAS  C:\Users\DGILLI~1\AppData\Local\Temp\ccLnHo3C.s 			page 1


   1              		.syntax unified
   2              		.cpu cortex-m3
   3              		.fpu softvfp
   4              		.eabi_attribute 20, 1
   5              		.eabi_attribute 21, 1
   6              		.eabi_attribute 23, 3
   7              		.eabi_attribute 24, 1
   8              		.eabi_attribute 25, 1
   9              		.eabi_attribute 26, 1
  10              		.eabi_attribute 30, 1
  11              		.eabi_attribute 34, 1
  12              		.eabi_attribute 18, 4
  13              		.thumb
  14              		.file	"ILO_Trim_1_PM.c"
  15              		.text
  16              	.Ltext0:
  17              		.cfi_sections	.debug_frame
  18              		.section	.text.ILO_Trim_1_SaveConfig,"ax",%progbits
  19              		.align	2
  20              		.global	ILO_Trim_1_SaveConfig
  21              		.thumb
  22              		.thumb_func
  23              		.type	ILO_Trim_1_SaveConfig, %function
  24              	ILO_Trim_1_SaveConfig:
  25              	.LFB0:
  26              		.file 1 ".\\Generated_Source\\PSoC5\\ILO_Trim_1_PM.c"
   1:.\Generated_Source\PSoC5/ILO_Trim_1_PM.c **** /*******************************************************************************
   2:.\Generated_Source\PSoC5/ILO_Trim_1_PM.c **** * File Name: ILO_Trim_1_PM.c
   3:.\Generated_Source\PSoC5/ILO_Trim_1_PM.c **** * Version 2.0
   4:.\Generated_Source\PSoC5/ILO_Trim_1_PM.c **** *
   5:.\Generated_Source\PSoC5/ILO_Trim_1_PM.c **** * Description:
   6:.\Generated_Source\PSoC5/ILO_Trim_1_PM.c **** *  This file provides the power management source code to API for the
   7:.\Generated_Source\PSoC5/ILO_Trim_1_PM.c **** *  ILO Trim component.
   8:.\Generated_Source\PSoC5/ILO_Trim_1_PM.c **** *
   9:.\Generated_Source\PSoC5/ILO_Trim_1_PM.c **** * Note:
  10:.\Generated_Source\PSoC5/ILO_Trim_1_PM.c **** *  None
  11:.\Generated_Source\PSoC5/ILO_Trim_1_PM.c **** *
  12:.\Generated_Source\PSoC5/ILO_Trim_1_PM.c **** *******************************************************************************
  13:.\Generated_Source\PSoC5/ILO_Trim_1_PM.c **** * Copyright 2013, Cypress Semiconductor Corporation.  All rights reserved.
  14:.\Generated_Source\PSoC5/ILO_Trim_1_PM.c **** * You may use this file only in accordance with the license, terms, conditions,
  15:.\Generated_Source\PSoC5/ILO_Trim_1_PM.c **** * disclaimers, and limitations in the end user license agreement accompanying
  16:.\Generated_Source\PSoC5/ILO_Trim_1_PM.c **** * the software package with which this file was provided.
  17:.\Generated_Source\PSoC5/ILO_Trim_1_PM.c **** ********************************************************************************/
  18:.\Generated_Source\PSoC5/ILO_Trim_1_PM.c **** 
  19:.\Generated_Source\PSoC5/ILO_Trim_1_PM.c **** #include "ILO_Trim_1.h"
  20:.\Generated_Source\PSoC5/ILO_Trim_1_PM.c **** static ILO_Trim_1_backupStruct ILO_Trim_1_backup;
  21:.\Generated_Source\PSoC5/ILO_Trim_1_PM.c **** 
  22:.\Generated_Source\PSoC5/ILO_Trim_1_PM.c **** 
  23:.\Generated_Source\PSoC5/ILO_Trim_1_PM.c **** /*******************************************************************************
  24:.\Generated_Source\PSoC5/ILO_Trim_1_PM.c **** * Function Name: ILO_Trim_1_SaveConfig
  25:.\Generated_Source\PSoC5/ILO_Trim_1_PM.c **** ********************************************************************************
  26:.\Generated_Source\PSoC5/ILO_Trim_1_PM.c **** *
  27:.\Generated_Source\PSoC5/ILO_Trim_1_PM.c **** * Summary:
  28:.\Generated_Source\PSoC5/ILO_Trim_1_PM.c **** *  Save the current user configuration
  29:.\Generated_Source\PSoC5/ILO_Trim_1_PM.c **** *
  30:.\Generated_Source\PSoC5/ILO_Trim_1_PM.c **** * Parameters:
  31:.\Generated_Source\PSoC5/ILO_Trim_1_PM.c **** *  None
ARM GAS  C:\Users\DGILLI~1\AppData\Local\Temp\ccLnHo3C.s 			page 2


  32:.\Generated_Source\PSoC5/ILO_Trim_1_PM.c **** *
  33:.\Generated_Source\PSoC5/ILO_Trim_1_PM.c **** * Return:
  34:.\Generated_Source\PSoC5/ILO_Trim_1_PM.c **** *  None
  35:.\Generated_Source\PSoC5/ILO_Trim_1_PM.c **** *
  36:.\Generated_Source\PSoC5/ILO_Trim_1_PM.c **** * Global variables:
  37:.\Generated_Source\PSoC5/ILO_Trim_1_PM.c **** *  ILO_Trim_1_backup:  Variables of this global structure are modified to
  38:.\Generated_Source\PSoC5/ILO_Trim_1_PM.c **** *  store the values of non retention configuration registers when Sleep() API is
  39:.\Generated_Source\PSoC5/ILO_Trim_1_PM.c **** *  called.
  40:.\Generated_Source\PSoC5/ILO_Trim_1_PM.c **** *
  41:.\Generated_Source\PSoC5/ILO_Trim_1_PM.c **** *******************************************************************************/
  42:.\Generated_Source\PSoC5/ILO_Trim_1_PM.c **** void ILO_Trim_1_SaveConfig(void) 
  43:.\Generated_Source\PSoC5/ILO_Trim_1_PM.c **** {
  27              		.loc 1 43 0
  28              		.cfi_startproc
  29              		@ args = 0, pretend = 0, frame = 0
  30              		@ frame_needed = 0, uses_anonymous_args = 0
  31              		@ link register save eliminated.
  32 0000 7047     		bx	lr
  33              		.cfi_endproc
  34              	.LFE0:
  35              		.size	ILO_Trim_1_SaveConfig, .-ILO_Trim_1_SaveConfig
  36 0002 00BF     		.section	.text.ILO_Trim_1_RestoreConfig,"ax",%progbits
  37              		.align	2
  38              		.global	ILO_Trim_1_RestoreConfig
  39              		.thumb
  40              		.thumb_func
  41              		.type	ILO_Trim_1_RestoreConfig, %function
  42              	ILO_Trim_1_RestoreConfig:
  43              	.LFB1:
  44:.\Generated_Source\PSoC5/ILO_Trim_1_PM.c ****     #if (!ILO_Trim_1_USING_FIXED_FUNCTION)
  45:.\Generated_Source\PSoC5/ILO_Trim_1_PM.c **** 		/* Backup non retention registers, interrupt mask and capture counter */
  46:.\Generated_Source\PSoC5/ILO_Trim_1_PM.c ****         ILO_Trim_1_backup.timerCapture = CY_GET_REG8(ILO_Trim_1_CAPTURE_PTR);
  47:.\Generated_Source\PSoC5/ILO_Trim_1_PM.c **** 		/* Backup the enable state of the Timer component */
  48:.\Generated_Source\PSoC5/ILO_Trim_1_PM.c ****         ILO_Trim_1_backup.timerControlRegister = (uint8)ILO_Trim_1_CONTROL_REG;
  49:.\Generated_Source\PSoC5/ILO_Trim_1_PM.c ****     #endif /* Backup non retention registers in UDB implementation. All fixed function registers ar
  50:.\Generated_Source\PSoC5/ILO_Trim_1_PM.c **** }
  51:.\Generated_Source\PSoC5/ILO_Trim_1_PM.c **** 
  52:.\Generated_Source\PSoC5/ILO_Trim_1_PM.c **** 
  53:.\Generated_Source\PSoC5/ILO_Trim_1_PM.c **** /*******************************************************************************
  54:.\Generated_Source\PSoC5/ILO_Trim_1_PM.c **** * Function Name: ILO_Trim_1_RestoreConfig
  55:.\Generated_Source\PSoC5/ILO_Trim_1_PM.c **** ********************************************************************************
  56:.\Generated_Source\PSoC5/ILO_Trim_1_PM.c **** *
  57:.\Generated_Source\PSoC5/ILO_Trim_1_PM.c **** * Summary:
  58:.\Generated_Source\PSoC5/ILO_Trim_1_PM.c **** *  Restores the current user configuration.
  59:.\Generated_Source\PSoC5/ILO_Trim_1_PM.c **** *
  60:.\Generated_Source\PSoC5/ILO_Trim_1_PM.c **** * Parameters:
  61:.\Generated_Source\PSoC5/ILO_Trim_1_PM.c **** *  None
  62:.\Generated_Source\PSoC5/ILO_Trim_1_PM.c **** *
  63:.\Generated_Source\PSoC5/ILO_Trim_1_PM.c **** * Return:
  64:.\Generated_Source\PSoC5/ILO_Trim_1_PM.c **** *  None
  65:.\Generated_Source\PSoC5/ILO_Trim_1_PM.c **** *
  66:.\Generated_Source\PSoC5/ILO_Trim_1_PM.c **** * Global variables:
  67:.\Generated_Source\PSoC5/ILO_Trim_1_PM.c **** *  ILO_Trim_1_backup:  Variables of this global structure are used to
  68:.\Generated_Source\PSoC5/ILO_Trim_1_PM.c **** *  restore the values of non retention registers on wakeup from sleep mode.
  69:.\Generated_Source\PSoC5/ILO_Trim_1_PM.c **** *
  70:.\Generated_Source\PSoC5/ILO_Trim_1_PM.c **** *******************************************************************************/
  71:.\Generated_Source\PSoC5/ILO_Trim_1_PM.c **** void ILO_Trim_1_RestoreConfig(void) 
ARM GAS  C:\Users\DGILLI~1\AppData\Local\Temp\ccLnHo3C.s 			page 3


  72:.\Generated_Source\PSoC5/ILO_Trim_1_PM.c **** {   
  44              		.loc 1 72 0
  45              		.cfi_startproc
  46              		@ args = 0, pretend = 0, frame = 0
  47              		@ frame_needed = 0, uses_anonymous_args = 0
  48              		@ link register save eliminated.
  49 0000 7047     		bx	lr
  50              		.cfi_endproc
  51              	.LFE1:
  52              		.size	ILO_Trim_1_RestoreConfig, .-ILO_Trim_1_RestoreConfig
  53 0002 00BF     		.section	.text.ILO_Trim_1_Sleep,"ax",%progbits
  54              		.align	2
  55              		.global	ILO_Trim_1_Sleep
  56              		.thumb
  57              		.thumb_func
  58              		.type	ILO_Trim_1_Sleep, %function
  59              	ILO_Trim_1_Sleep:
  60              	.LFB2:
  73:.\Generated_Source\PSoC5/ILO_Trim_1_PM.c ****     #if (!ILO_Trim_1_USING_FIXED_FUNCTION)
  74:.\Generated_Source\PSoC5/ILO_Trim_1_PM.c ****         /* Restore the UDB non-rentention registers for PSoC5A */
  75:.\Generated_Source\PSoC5/ILO_Trim_1_PM.c ****         CY_SET_REG8(ILO_Trim_1_CAPTURE_PTR, ILO_Trim_1_backup.timerCapture);
  76:.\Generated_Source\PSoC5/ILO_Trim_1_PM.c **** 		/* Restore the enable state of the Timer component */
  77:.\Generated_Source\PSoC5/ILO_Trim_1_PM.c ****         ILO_Trim_1_CONTROL_REG |= ILO_Trim_1_backup.timerControlRegister;
  78:.\Generated_Source\PSoC5/ILO_Trim_1_PM.c ****     #endif /* Restore non retention registers in the UDB implementation only */
  79:.\Generated_Source\PSoC5/ILO_Trim_1_PM.c **** }
  80:.\Generated_Source\PSoC5/ILO_Trim_1_PM.c **** 
  81:.\Generated_Source\PSoC5/ILO_Trim_1_PM.c **** 
  82:.\Generated_Source\PSoC5/ILO_Trim_1_PM.c **** /*******************************************************************************
  83:.\Generated_Source\PSoC5/ILO_Trim_1_PM.c **** * Function Name: ILO_Trim_1_Sleep
  84:.\Generated_Source\PSoC5/ILO_Trim_1_PM.c **** ********************************************************************************
  85:.\Generated_Source\PSoC5/ILO_Trim_1_PM.c **** *
  86:.\Generated_Source\PSoC5/ILO_Trim_1_PM.c **** * Summary:
  87:.\Generated_Source\PSoC5/ILO_Trim_1_PM.c **** *  Stop and Save the user configuration
  88:.\Generated_Source\PSoC5/ILO_Trim_1_PM.c **** *
  89:.\Generated_Source\PSoC5/ILO_Trim_1_PM.c **** * Parameters:
  90:.\Generated_Source\PSoC5/ILO_Trim_1_PM.c **** *  None
  91:.\Generated_Source\PSoC5/ILO_Trim_1_PM.c **** *
  92:.\Generated_Source\PSoC5/ILO_Trim_1_PM.c **** * Return:
  93:.\Generated_Source\PSoC5/ILO_Trim_1_PM.c **** *  None
  94:.\Generated_Source\PSoC5/ILO_Trim_1_PM.c **** *
  95:.\Generated_Source\PSoC5/ILO_Trim_1_PM.c **** * Global variables:
  96:.\Generated_Source\PSoC5/ILO_Trim_1_PM.c **** *  ILO_Trim_1_backup.TimerEnableState:  Is modified depending on the
  97:.\Generated_Source\PSoC5/ILO_Trim_1_PM.c **** *  enable state of the block before entering sleep mode.
  98:.\Generated_Source\PSoC5/ILO_Trim_1_PM.c **** *
  99:.\Generated_Source\PSoC5/ILO_Trim_1_PM.c **** *******************************************************************************/
 100:.\Generated_Source\PSoC5/ILO_Trim_1_PM.c **** void ILO_Trim_1_Sleep(void) 
 101:.\Generated_Source\PSoC5/ILO_Trim_1_PM.c **** {
  61              		.loc 1 101 0
  62              		.cfi_startproc
  63              		@ args = 0, pretend = 0, frame = 0
  64              		@ frame_needed = 0, uses_anonymous_args = 0
  65              		.loc 1 101 0
  66 0000 08B5     		push	{r3, lr}
  67              		.cfi_def_cfa_offset 8
  68              		.cfi_offset 3, -8
  69              		.cfi_offset 14, -4
 102:.\Generated_Source\PSoC5/ILO_Trim_1_PM.c **** 	uint8 enState;
ARM GAS  C:\Users\DGILLI~1\AppData\Local\Temp\ccLnHo3C.s 			page 4


 103:.\Generated_Source\PSoC5/ILO_Trim_1_PM.c **** 	
 104:.\Generated_Source\PSoC5/ILO_Trim_1_PM.c **** 	/* Back up enable state from the Timer control register */
 105:.\Generated_Source\PSoC5/ILO_Trim_1_PM.c **** 	#if (!ILO_Trim_1_USING_FIXED_FUNCTION)
 106:.\Generated_Source\PSoC5/ILO_Trim_1_PM.c **** 		enState = (uint8)(ILO_Trim_1_CONTROL_REG & ILO_Trim_1_CTRL_ENABLE);
 107:.\Generated_Source\PSoC5/ILO_Trim_1_PM.c **** 	#else
 108:.\Generated_Source\PSoC5/ILO_Trim_1_PM.c **** 		#if (CY_PSOC4)
 109:.\Generated_Source\PSoC5/ILO_Trim_1_PM.c **** 			enState = (uint8)(ILO_Trim_1_TCPWM_BLOCK_CONTROL_REG & ILO_Trim_1_TCPWM_MASK);
 110:.\Generated_Source\PSoC5/ILO_Trim_1_PM.c **** 		#else
 111:.\Generated_Source\PSoC5/ILO_Trim_1_PM.c **** 			enState = (uint8)(ILO_Trim_1_CONTROL_REG & ILO_Trim_1_CTRL_ENABLE);
  70              		.loc 1 111 0
  71 0002 074B     		ldr	r3, .L7
  72 0004 1B78     		ldrb	r3, [r3]	@ zero_extendqisi2
  73              	.LVL0:
 112:.\Generated_Source\PSoC5/ILO_Trim_1_PM.c **** 		#endif /* End of PSoC 3 and PSOC 5LP code*/
 113:.\Generated_Source\PSoC5/ILO_Trim_1_PM.c **** 	#endif /* End of Fixed Function code */
 114:.\Generated_Source\PSoC5/ILO_Trim_1_PM.c ****     /* Save Counter's enable state */
 115:.\Generated_Source\PSoC5/ILO_Trim_1_PM.c ****     if(enState == ILO_Trim_1_CTRL_ENABLE)
  74              		.loc 1 115 0
  75 0006 13F0010F 		tst	r3, #1
  76 000a 03D0     		beq	.L4
 116:.\Generated_Source\PSoC5/ILO_Trim_1_PM.c ****     {
 117:.\Generated_Source\PSoC5/ILO_Trim_1_PM.c ****         /* Timer is enabled */
 118:.\Generated_Source\PSoC5/ILO_Trim_1_PM.c ****         ILO_Trim_1_backup.timerEnableState = 1u;
  77              		.loc 1 118 0
  78 000c 0122     		movs	r2, #1
  79 000e 054B     		ldr	r3, .L7+4
  80              	.LVL1:
  81 0010 1A70     		strb	r2, [r3]
  82 0012 02E0     		b	.L5
  83              	.LVL2:
  84              	.L4:
 119:.\Generated_Source\PSoC5/ILO_Trim_1_PM.c ****     }
 120:.\Generated_Source\PSoC5/ILO_Trim_1_PM.c ****     else
 121:.\Generated_Source\PSoC5/ILO_Trim_1_PM.c ****     {
 122:.\Generated_Source\PSoC5/ILO_Trim_1_PM.c ****         /* Timer is disabled */
 123:.\Generated_Source\PSoC5/ILO_Trim_1_PM.c ****         ILO_Trim_1_backup.timerEnableState = 0u;
  85              		.loc 1 123 0
  86 0014 0022     		movs	r2, #0
  87 0016 034B     		ldr	r3, .L7+4
  88              	.LVL3:
  89 0018 1A70     		strb	r2, [r3]
  90              	.L5:
 124:.\Generated_Source\PSoC5/ILO_Trim_1_PM.c ****     }
 125:.\Generated_Source\PSoC5/ILO_Trim_1_PM.c ****     ILO_Trim_1_Stop();
  91              		.loc 1 125 0
  92 001a FFF7FEFF 		bl	ILO_Trim_1_Stop
  93              	.LVL4:
  94 001e 08BD     		pop	{r3, pc}
  95              	.L8:
  96              		.align	2
  97              	.L7:
  98 0020 004F0040 		.word	1073762048
  99 0024 00000000 		.word	.LANCHOR0
 100              		.cfi_endproc
 101              	.LFE2:
 102              		.size	ILO_Trim_1_Sleep, .-ILO_Trim_1_Sleep
 103              		.section	.text.ILO_Trim_1_Wakeup,"ax",%progbits
ARM GAS  C:\Users\DGILLI~1\AppData\Local\Temp\ccLnHo3C.s 			page 5


 104              		.align	2
 105              		.global	ILO_Trim_1_Wakeup
 106              		.thumb
 107              		.thumb_func
 108              		.type	ILO_Trim_1_Wakeup, %function
 109              	ILO_Trim_1_Wakeup:
 110              	.LFB3:
 126:.\Generated_Source\PSoC5/ILO_Trim_1_PM.c ****     ILO_Trim_1_SaveConfig();
 127:.\Generated_Source\PSoC5/ILO_Trim_1_PM.c **** }
 128:.\Generated_Source\PSoC5/ILO_Trim_1_PM.c **** 
 129:.\Generated_Source\PSoC5/ILO_Trim_1_PM.c **** 
 130:.\Generated_Source\PSoC5/ILO_Trim_1_PM.c **** /*******************************************************************************
 131:.\Generated_Source\PSoC5/ILO_Trim_1_PM.c **** * Function Name: ILO_Trim_1_Wakeup
 132:.\Generated_Source\PSoC5/ILO_Trim_1_PM.c **** ********************************************************************************
 133:.\Generated_Source\PSoC5/ILO_Trim_1_PM.c **** *
 134:.\Generated_Source\PSoC5/ILO_Trim_1_PM.c **** * Summary:
 135:.\Generated_Source\PSoC5/ILO_Trim_1_PM.c **** *  Restores and enables the user configuration
 136:.\Generated_Source\PSoC5/ILO_Trim_1_PM.c **** *
 137:.\Generated_Source\PSoC5/ILO_Trim_1_PM.c **** * Parameters:
 138:.\Generated_Source\PSoC5/ILO_Trim_1_PM.c **** *  None
 139:.\Generated_Source\PSoC5/ILO_Trim_1_PM.c **** *
 140:.\Generated_Source\PSoC5/ILO_Trim_1_PM.c **** * Return:
 141:.\Generated_Source\PSoC5/ILO_Trim_1_PM.c **** *  None
 142:.\Generated_Source\PSoC5/ILO_Trim_1_PM.c **** *
 143:.\Generated_Source\PSoC5/ILO_Trim_1_PM.c **** * Global variables:
 144:.\Generated_Source\PSoC5/ILO_Trim_1_PM.c **** *  ILO_Trim_1_backup.TimerEnableState:  Is used to restore the enable 
 145:.\Generated_Source\PSoC5/ILO_Trim_1_PM.c **** *  state of block on wakeup from sleep mode.
 146:.\Generated_Source\PSoC5/ILO_Trim_1_PM.c **** *
 147:.\Generated_Source\PSoC5/ILO_Trim_1_PM.c **** *******************************************************************************/
 148:.\Generated_Source\PSoC5/ILO_Trim_1_PM.c **** void ILO_Trim_1_Wakeup(void) 
 149:.\Generated_Source\PSoC5/ILO_Trim_1_PM.c **** {
 111              		.loc 1 149 0
 112              		.cfi_startproc
 113              		@ args = 0, pretend = 0, frame = 0
 114              		@ frame_needed = 0, uses_anonymous_args = 0
 115              		@ link register save eliminated.
 150:.\Generated_Source\PSoC5/ILO_Trim_1_PM.c ****     ILO_Trim_1_RestoreConfig();
 151:.\Generated_Source\PSoC5/ILO_Trim_1_PM.c **** 	
 152:.\Generated_Source\PSoC5/ILO_Trim_1_PM.c ****     if(ILO_Trim_1_backup.timerEnableState == 1u)
 116              		.loc 1 152 0
 117 0000 0E4B     		ldr	r3, .L11
 118 0002 1B78     		ldrb	r3, [r3]	@ zero_extendqisi2
 119 0004 012B     		cmp	r3, #1
 120 0006 18D1     		bne	.L9
 153:.\Generated_Source\PSoC5/ILO_Trim_1_PM.c ****     {     /* Enable Timer's operation */
 154:.\Generated_Source\PSoC5/ILO_Trim_1_PM.c ****         #if (!ILO_Trim_1_USING_FIXED_FUNCTION)
 155:.\Generated_Source\PSoC5/ILO_Trim_1_PM.c **** 			/* Enable UDB Timer */
 156:.\Generated_Source\PSoC5/ILO_Trim_1_PM.c **** 			ILO_Trim_1_CONTROL_REG |= ILO_Trim_1_CTRL_ENABLE;
 157:.\Generated_Source\PSoC5/ILO_Trim_1_PM.c **** 		#else
 158:.\Generated_Source\PSoC5/ILO_Trim_1_PM.c **** 			#if (CY_PSOC4)
 159:.\Generated_Source\PSoC5/ILO_Trim_1_PM.c **** 				ILO_Trim_1_TCPWM_Enable();
 160:.\Generated_Source\PSoC5/ILO_Trim_1_PM.c **** 			#else
 161:.\Generated_Source\PSoC5/ILO_Trim_1_PM.c **** 				/* Enable FF Timer */
 162:.\Generated_Source\PSoC5/ILO_Trim_1_PM.c **** 				/* Clear all bits but the enable bit (if it's already set) for Timer operation */
 163:.\Generated_Source\PSoC5/ILO_Trim_1_PM.c **** 			    ILO_Trim_1_CONTROL_REG &= ILO_Trim_1_CTRL_ENABLE;
 121              		.loc 1 163 0
 122 0008 0D4B     		ldr	r3, .L11+4
ARM GAS  C:\Users\DGILLI~1\AppData\Local\Temp\ccLnHo3C.s 			page 6


 123 000a 1A78     		ldrb	r2, [r3]	@ zero_extendqisi2
 124 000c 02F00102 		and	r2, r2, #1
 125 0010 1A70     		strb	r2, [r3]
 164:.\Generated_Source\PSoC5/ILO_Trim_1_PM.c **** 				
 165:.\Generated_Source\PSoC5/ILO_Trim_1_PM.c **** 				/* CONTROL3 register exists only in PSoC3 OR PSoC5LP */
 166:.\Generated_Source\PSoC5/ILO_Trim_1_PM.c **** 			    ILO_Trim_1_CONTROL3_REG &= (uint8)(~ILO_Trim_1_CTRL_MODE_MASK);
 126              		.loc 1 166 0
 127 0012 0C49     		ldr	r1, .L11+8
 128 0014 0A78     		ldrb	r2, [r1]	@ zero_extendqisi2
 129 0016 02F0FC02 		and	r2, r2, #252
 130 001a 0A70     		strb	r2, [r1]
 167:.\Generated_Source\PSoC5/ILO_Trim_1_PM.c **** 				
 168:.\Generated_Source\PSoC5/ILO_Trim_1_PM.c **** 				ILO_Trim_1_GLOBAL_ENABLE |= ILO_Trim_1_BLOCK_EN_MASK;
 131              		.loc 1 168 0
 132 001c A1F65F31 		subw	r1, r1, #2911
 133 0020 0A78     		ldrb	r2, [r1]	@ zero_extendqisi2
 134 0022 42F00102 		orr	r2, r2, #1
 135 0026 0A70     		strb	r2, [r1]
 169:.\Generated_Source\PSoC5/ILO_Trim_1_PM.c **** 		        ILO_Trim_1_GLOBAL_STBY_ENABLE |= ILO_Trim_1_BLOCK_STBY_EN_MASK;
 136              		.loc 1 169 0
 137 0028 1031     		adds	r1, r1, #16
 138 002a 0A78     		ldrb	r2, [r1]	@ zero_extendqisi2
 139 002c 42F00102 		orr	r2, r2, #1
 140 0030 0A70     		strb	r2, [r1]
 170:.\Generated_Source\PSoC5/ILO_Trim_1_PM.c **** 
 171:.\Generated_Source\PSoC5/ILO_Trim_1_PM.c **** 				ILO_Trim_1_CONTROL_REG |= ILO_Trim_1_CTRL_ENABLE;
 141              		.loc 1 171 0
 142 0032 1A78     		ldrb	r2, [r3]	@ zero_extendqisi2
 143 0034 42F00102 		orr	r2, r2, #1
 144 0038 1A70     		strb	r2, [r3]
 145              	.L9:
 146 003a 7047     		bx	lr
 147              	.L12:
 148              		.align	2
 149              	.L11:
 150 003c 00000000 		.word	.LANCHOR0
 151 0040 004F0040 		.word	1073762048
 152 0044 024F0040 		.word	1073762050
 153              		.cfi_endproc
 154              	.LFE3:
 155              		.size	ILO_Trim_1_Wakeup, .-ILO_Trim_1_Wakeup
 156              		.bss
 157              		.align	2
 158              		.set	.LANCHOR0,. + 0
 159              		.type	ILO_Trim_1_backup, %object
 160              		.size	ILO_Trim_1_backup, 1
 161              	ILO_Trim_1_backup:
 162 0000 00       		.space	1
 163 0001 000000   		.text
 164              	.Letext0:
 165              		.file 2 "Generated_Source\\PSoC5/cytypes.h"
 166              		.file 3 ".\\Generated_Source\\PSoC5\\ILO_Trim_1.h"