ARM GAS  C:\Users\doug_000\AppData\Local\Temp\ccAb5D0z.s 			page 1


   1              		.syntax unified
   2              		.cpu cortex-m3
   3              		.fpu softvfp
   4              		.eabi_attribute 20, 1
   5              		.eabi_attribute 21, 1
   6              		.eabi_attribute 23, 3
   7              		.eabi_attribute 24, 1
   8              		.eabi_attribute 25, 1
   9              		.eabi_attribute 26, 1
  10              		.eabi_attribute 30, 1
  11              		.eabi_attribute 34, 1
  12              		.eabi_attribute 18, 4
  13              		.thumb
  14              		.file	"ILO_Trim_1.c"
  15              		.text
  16              	.Ltext0:
  17              		.cfi_sections	.debug_frame
  18              		.section	.text.ILO_Trim_1_ReadCapture,"ax",%progbits
  19              		.align	2
  20              		.thumb
  21              		.thumb_func
  22              		.type	ILO_Trim_1_ReadCapture, %function
  23              	ILO_Trim_1_ReadCapture:
  24              	.LFB11:
  25              		.file 1 ".\\Generated_Source\\PSoC5\\ILO_Trim_1.c"
   1:.\Generated_Source\PSoC5/ILO_Trim_1.c **** /*******************************************************************************
   2:.\Generated_Source\PSoC5/ILO_Trim_1.c **** * File Name: ILO_Trim_1.c
   3:.\Generated_Source\PSoC5/ILO_Trim_1.c **** * Version 2.0
   4:.\Generated_Source\PSoC5/ILO_Trim_1.c **** *
   5:.\Generated_Source\PSoC5/ILO_Trim_1.c **** * Description:
   6:.\Generated_Source\PSoC5/ILO_Trim_1.c **** *  This file contains the setup, control and status commands for the 
   7:.\Generated_Source\PSoC5/ILO_Trim_1.c **** *  ILO_Trim component. It also contains the ISR for the trimming operation.
   8:.\Generated_Source\PSoC5/ILO_Trim_1.c **** *
   9:.\Generated_Source\PSoC5/ILO_Trim_1.c **** * Note:
  10:.\Generated_Source\PSoC5/ILO_Trim_1.c **** *  None
  11:.\Generated_Source\PSoC5/ILO_Trim_1.c **** *
  12:.\Generated_Source\PSoC5/ILO_Trim_1.c **** ********************************************************************************
  13:.\Generated_Source\PSoC5/ILO_Trim_1.c **** * Copyright 2008-2013, Cypress Semiconductor Corporation.  All rights reserved.
  14:.\Generated_Source\PSoC5/ILO_Trim_1.c **** * You may use this file only in accordance with the license, terms, conditions,
  15:.\Generated_Source\PSoC5/ILO_Trim_1.c **** * disclaimers, and limitations in the end user license agreement accompanying
  16:.\Generated_Source\PSoC5/ILO_Trim_1.c **** * the software package with which this file was provided.
  17:.\Generated_Source\PSoC5/ILO_Trim_1.c **** ********************************************************************************/
  18:.\Generated_Source\PSoC5/ILO_Trim_1.c **** 
  19:.\Generated_Source\PSoC5/ILO_Trim_1.c **** #include "ILO_Trim_1.h"
  20:.\Generated_Source\PSoC5/ILO_Trim_1.c **** #include "cyapicallbacks.h"
  21:.\Generated_Source\PSoC5/ILO_Trim_1.c **** 
  22:.\Generated_Source\PSoC5/ILO_Trim_1.c **** static uint16 ILO_Trim_1_ReadCapture(void) CYREENTRANT;
  23:.\Generated_Source\PSoC5/ILO_Trim_1.c **** static uint16 ILO_Trim_1_ReadEdgeCount(void) CYREENTRANT;
  24:.\Generated_Source\PSoC5/ILO_Trim_1.c **** 
  25:.\Generated_Source\PSoC5/ILO_Trim_1.c **** #if (!CY_PSOC4)
  26:.\Generated_Source\PSoC5/ILO_Trim_1.c **** 	static uint8 trimFactory;
  27:.\Generated_Source\PSoC5/ILO_Trim_1.c **** #endif /* End of PSoC 3 and PSoC 5LP code */
  28:.\Generated_Source\PSoC5/ILO_Trim_1.c **** 
  29:.\Generated_Source\PSoC5/ILO_Trim_1.c **** #if(!CY_PSOC4)
  30:.\Generated_Source\PSoC5/ILO_Trim_1.c **** 
  31:.\Generated_Source\PSoC5/ILO_Trim_1.c **** 
  32:.\Generated_Source\PSoC5/ILO_Trim_1.c **** /*******************************************************************************
ARM GAS  C:\Users\doug_000\AppData\Local\Temp\ccAb5D0z.s 			page 2


  33:.\Generated_Source\PSoC5/ILO_Trim_1.c **** * Interrupt Name: ILO_Trim_1_CorrectionISR
  34:.\Generated_Source\PSoC5/ILO_Trim_1.c **** ********************************************************************************
  35:.\Generated_Source\PSoC5/ILO_Trim_1.c **** *
  36:.\Generated_Source\PSoC5/ILO_Trim_1.c **** * Summary: 
  37:.\Generated_Source\PSoC5/ILO_Trim_1.c **** *  If enabled, this CorrectionISR is executed for every cycle of the ILO. It 
  38:.\Generated_Source\PSoC5/ILO_Trim_1.c **** *  reads the counter capture register to find out how many Reference edges were
  39:.\Generated_Source\PSoC5/ILO_Trim_1.c **** *  counted per cycle of the ILO. Then, the CorrectionISR checks whether this 
  40:.\Generated_Source\PSoC5/ILO_Trim_1.c **** *  value is within the acceptable range. If yes, it disables itself. If not, 
  41:.\Generated_Source\PSoC5/ILO_Trim_1.c **** *  it corrects the ILO frequency by unit trim - either coarse or fine, and exits
  42:.\Generated_Source\PSoC5/ILO_Trim_1.c **** *  the routine.
  43:.\Generated_Source\PSoC5/ILO_Trim_1.c **** *
  44:.\Generated_Source\PSoC5/ILO_Trim_1.c **** * Parameters:
  45:.\Generated_Source\PSoC5/ILO_Trim_1.c **** *  None
  46:.\Generated_Source\PSoC5/ILO_Trim_1.c **** *
  47:.\Generated_Source\PSoC5/ILO_Trim_1.c **** * Side Effects: 
  48:.\Generated_Source\PSoC5/ILO_Trim_1.c **** *  1) Turns off CorrectionISR if ILO is trimmed.
  49:.\Generated_Source\PSoC5/ILO_Trim_1.c **** *  2) Reads counter capture register directly
  50:.\Generated_Source\PSoC5/ILO_Trim_1.c **** *  3) Changes ILO frequency
  51:.\Generated_Source\PSoC5/ILO_Trim_1.c **** *
  52:.\Generated_Source\PSoC5/ILO_Trim_1.c **** *******************************************************************************/
  53:.\Generated_Source\PSoC5/ILO_Trim_1.c **** CY_ISR(ILO_Trim_1_CorrectionIteration)
  54:.\Generated_Source\PSoC5/ILO_Trim_1.c **** {
  55:.\Generated_Source\PSoC5/ILO_Trim_1.c ****     uint16 edgeCount, errorNewAbs;
  56:.\Generated_Source\PSoC5/ILO_Trim_1.c ****     int16 errorNew;
  57:.\Generated_Source\PSoC5/ILO_Trim_1.c ****     uint8 trimNew;
  58:.\Generated_Source\PSoC5/ILO_Trim_1.c ****     static uint16 errorOld = ILO_Trim_1_ERROR_DEFAULT;
  59:.\Generated_Source\PSoC5/ILO_Trim_1.c ****     static uint8 trimOld, startDelay = ILO_Trim_1_INIT_DELAY;
  60:.\Generated_Source\PSoC5/ILO_Trim_1.c ****     static uint8 iteration = ILO_Trim_1_ISR_INVALID;
  61:.\Generated_Source\PSoC5/ILO_Trim_1.c **** 
  62:.\Generated_Source\PSoC5/ILO_Trim_1.c ****     #ifdef ILO_Trim_1_CORRECTION_ITERATION_ENTRY_CALLBACK
  63:.\Generated_Source\PSoC5/ILO_Trim_1.c ****         ILO_Trim_1_CorrectionIteration_EntryCallback();
  64:.\Generated_Source\PSoC5/ILO_Trim_1.c ****     #endif /* ILO_Trim_1_CORRECTION_ITERATION_ENTRY_CALLBACK */
  65:.\Generated_Source\PSoC5/ILO_Trim_1.c ****     
  66:.\Generated_Source\PSoC5/ILO_Trim_1.c ****     if(iteration == ILO_Trim_1_ISR_INVALID)
  67:.\Generated_Source\PSoC5/ILO_Trim_1.c ****     {
  68:.\Generated_Source\PSoC5/ILO_Trim_1.c ****         if(startDelay == ILO_Trim_1_FINAL_DELAY)
  69:.\Generated_Source\PSoC5/ILO_Trim_1.c ****         {
  70:.\Generated_Source\PSoC5/ILO_Trim_1.c ****             iteration = ILO_Trim_1_ISR_VALID;
  71:.\Generated_Source\PSoC5/ILO_Trim_1.c ****         }
  72:.\Generated_Source\PSoC5/ILO_Trim_1.c ****         else
  73:.\Generated_Source\PSoC5/ILO_Trim_1.c ****         {
  74:.\Generated_Source\PSoC5/ILO_Trim_1.c ****             /* Give some time once the component has started */
  75:.\Generated_Source\PSoC5/ILO_Trim_1.c ****             startDelay += ILO_Trim_1_DELAY_COUNT;
  76:.\Generated_Source\PSoC5/ILO_Trim_1.c ****         }
  77:.\Generated_Source\PSoC5/ILO_Trim_1.c ****     }
  78:.\Generated_Source\PSoC5/ILO_Trim_1.c ****     else
  79:.\Generated_Source\PSoC5/ILO_Trim_1.c ****     {
  80:.\Generated_Source\PSoC5/ILO_Trim_1.c ****         iteration = ILO_Trim_1_ISR_INVALID;
  81:.\Generated_Source\PSoC5/ILO_Trim_1.c ****         
  82:.\Generated_Source\PSoC5/ILO_Trim_1.c ****         edgeCount = ILO_Trim_1_ReadEdgeCount();
  83:.\Generated_Source\PSoC5/ILO_Trim_1.c ****             
  84:.\Generated_Source\PSoC5/ILO_Trim_1.c ****         if(edgeCount != ILO_Trim_1_COUNT_ZERO)
  85:.\Generated_Source\PSoC5/ILO_Trim_1.c ****         {
  86:.\Generated_Source\PSoC5/ILO_Trim_1.c ****             errorNew = (int16)((uint16)((ILO_Trim_1_EDGES_PPT / edgeCount) - ILO_Trim_1_PP_THOUSAND
  87:.\Generated_Source\PSoC5/ILO_Trim_1.c ****         }
  88:.\Generated_Source\PSoC5/ILO_Trim_1.c ****         else
  89:.\Generated_Source\PSoC5/ILO_Trim_1.c ****         {
ARM GAS  C:\Users\doug_000\AppData\Local\Temp\ccAb5D0z.s 			page 3


  90:.\Generated_Source\PSoC5/ILO_Trim_1.c ****             errorNew = (int16)ILO_Trim_1_COUNT_ZERO;
  91:.\Generated_Source\PSoC5/ILO_Trim_1.c ****         }
  92:.\Generated_Source\PSoC5/ILO_Trim_1.c ****     
  93:.\Generated_Source\PSoC5/ILO_Trim_1.c ****         #if (ILO_Trim_1_ILO_FREQUENCY == ILO_Trim_1_1kHz)
  94:.\Generated_Source\PSoC5/ILO_Trim_1.c ****             /* 1k ILO fine trim - TR0[3:0] reserved for 1kHz ILO */
  95:.\Generated_Source\PSoC5/ILO_Trim_1.c ****             trimNew = (uint8)((ILO_Trim_1_ILO_TR0_MASK & CY_GET_REG8(CYREG_ILO_TR0))
  96:.\Generated_Source\PSoC5/ILO_Trim_1.c ****                         | (uint8)((ILO_Trim_1_ILO_TR1_MASK & CY_GET_REG8(CYREG_ILO_TR1))
  97:.\Generated_Source\PSoC5/ILO_Trim_1.c ****                             << ILO_Trim_1_TRIM_SHIFT));
  98:.\Generated_Source\PSoC5/ILO_Trim_1.c ****         #else
  99:.\Generated_Source\PSoC5/ILO_Trim_1.c ****             /* 100k ILO fine trim - TR0[7:4] reserved for 100kHz ILO */
 100:.\Generated_Source\PSoC5/ILO_Trim_1.c ****             trimNew = (uint8)((uint8)((ILO_Trim_1_ILO_TR0_MASK & CY_GET_REG8(CYREG_ILO_TR0))
 101:.\Generated_Source\PSoC5/ILO_Trim_1.c ****                             >>ILO_Trim_1_TRIM_SHIFT)
 102:.\Generated_Source\PSoC5/ILO_Trim_1.c ****                         | (uint8)((ILO_Trim_1_ILO_TR1_MASK & CY_GET_REG8(CYREG_ILO_TR1))
 103:.\Generated_Source\PSoC5/ILO_Trim_1.c ****                             << ILO_Trim_1_TRIM_SHIFT));
 104:.\Generated_Source\PSoC5/ILO_Trim_1.c ****         #endif /* End of ILO Frequency dependent code. */
 105:.\Generated_Source\PSoC5/ILO_Trim_1.c ****     
 106:.\Generated_Source\PSoC5/ILO_Trim_1.c ****         if(errorNew < ILO_Trim_1_ERROR_ZERO)
 107:.\Generated_Source\PSoC5/ILO_Trim_1.c ****         {
 108:.\Generated_Source\PSoC5/ILO_Trim_1.c ****             errorNewAbs = (uint16)(-errorNew);
 109:.\Generated_Source\PSoC5/ILO_Trim_1.c ****         }
 110:.\Generated_Source\PSoC5/ILO_Trim_1.c ****         else
 111:.\Generated_Source\PSoC5/ILO_Trim_1.c ****         {
 112:.\Generated_Source\PSoC5/ILO_Trim_1.c ****              errorNewAbs = (uint16)errorNew;
 113:.\Generated_Source\PSoC5/ILO_Trim_1.c ****         }
 114:.\Generated_Source\PSoC5/ILO_Trim_1.c ****         
 115:.\Generated_Source\PSoC5/ILO_Trim_1.c ****         if(errorNewAbs > errorOld)
 116:.\Generated_Source\PSoC5/ILO_Trim_1.c ****         {
 117:.\Generated_Source\PSoC5/ILO_Trim_1.c ****             if(errorOld <= ILO_Trim_1_PP_HUNDRED)
 118:.\Generated_Source\PSoC5/ILO_Trim_1.c ****             {
 119:.\Generated_Source\PSoC5/ILO_Trim_1.c ****                 /* Revert back to the previous Trim */
 120:.\Generated_Source\PSoC5/ILO_Trim_1.c ****                 trimNew = trimOld;
 121:.\Generated_Source\PSoC5/ILO_Trim_1.c ****         
 122:.\Generated_Source\PSoC5/ILO_Trim_1.c ****                 /* Stop the CorrectionISR but not the Timer if the ILO frequency is stable */
 123:.\Generated_Source\PSoC5/ILO_Trim_1.c ****                 ILO_Trim_1_CorrectionISR_Disable();
 124:.\Generated_Source\PSoC5/ILO_Trim_1.c ****             }
 125:.\Generated_Source\PSoC5/ILO_Trim_1.c ****             else
 126:.\Generated_Source\PSoC5/ILO_Trim_1.c ****             {
 127:.\Generated_Source\PSoC5/ILO_Trim_1.c ****                 /* Start all over again from another coarse trim value */                
 128:.\Generated_Source\PSoC5/ILO_Trim_1.c ****                 if((trimNew & ILO_Trim_1_FINE_TRIM_MASK)!=ILO_Trim_1_TRIM_COARSE_NEXT)
 129:.\Generated_Source\PSoC5/ILO_Trim_1.c ****                 {
 130:.\Generated_Source\PSoC5/ILO_Trim_1.c ****                     trimNew += ILO_Trim_1_COARSE_TRIM_ADD; 
 131:.\Generated_Source\PSoC5/ILO_Trim_1.c ****                 }
 132:.\Generated_Source\PSoC5/ILO_Trim_1.c ****                 else
 133:.\Generated_Source\PSoC5/ILO_Trim_1.c ****                 {
 134:.\Generated_Source\PSoC5/ILO_Trim_1.c ****                     trimNew += ILO_Trim_1_FINE_TRIM_ADD; 
 135:.\Generated_Source\PSoC5/ILO_Trim_1.c ****                 }
 136:.\Generated_Source\PSoC5/ILO_Trim_1.c ****             }
 137:.\Generated_Source\PSoC5/ILO_Trim_1.c ****             /* Reinitialize the errorOld memory at the end of function */
 138:.\Generated_Source\PSoC5/ILO_Trim_1.c ****             errorNewAbs = ILO_Trim_1_ERROR_DEFAULT;
 139:.\Generated_Source\PSoC5/ILO_Trim_1.c ****         }
 140:.\Generated_Source\PSoC5/ILO_Trim_1.c ****         else
 141:.\Generated_Source\PSoC5/ILO_Trim_1.c ****         {
 142:.\Generated_Source\PSoC5/ILO_Trim_1.c ****             /* Keep a copy of the old trim setting */
 143:.\Generated_Source\PSoC5/ILO_Trim_1.c ****             trimOld = trimNew;
 144:.\Generated_Source\PSoC5/ILO_Trim_1.c ****     
 145:.\Generated_Source\PSoC5/ILO_Trim_1.c ****             if(edgeCount < (uint16)ILO_Trim_1_EDGES_IDEAL)
 146:.\Generated_Source\PSoC5/ILO_Trim_1.c ****             {
ARM GAS  C:\Users\doug_000\AppData\Local\Temp\ccAb5D0z.s 			page 4


 147:.\Generated_Source\PSoC5/ILO_Trim_1.c ****                 trimNew -= ILO_Trim_1_CORRECTION_STEP_SIZE;
 148:.\Generated_Source\PSoC5/ILO_Trim_1.c ****             }
 149:.\Generated_Source\PSoC5/ILO_Trim_1.c ****             else 
 150:.\Generated_Source\PSoC5/ILO_Trim_1.c ****             {
 151:.\Generated_Source\PSoC5/ILO_Trim_1.c ****                 trimNew += ILO_Trim_1_CORRECTION_STEP_SIZE;
 152:.\Generated_Source\PSoC5/ILO_Trim_1.c ****             }
 153:.\Generated_Source\PSoC5/ILO_Trim_1.c ****         }
 154:.\Generated_Source\PSoC5/ILO_Trim_1.c **** 
 155:.\Generated_Source\PSoC5/ILO_Trim_1.c ****         #if (ILO_Trim_1_ILO_FREQUENCY == ILO_Trim_1_1kHz)
 156:.\Generated_Source\PSoC5/ILO_Trim_1.c ****             CY_SET_REG8(CYREG_ILO_TR0, 
 157:.\Generated_Source\PSoC5/ILO_Trim_1.c ****                 (uint8)(CY_GET_REG8(CYREG_ILO_TR0) & ILO_Trim_1_FINE_TRIM_CLEAR)
 158:.\Generated_Source\PSoC5/ILO_Trim_1.c ****                 | (trimNew & ILO_Trim_1_ILO_TR0_MASK));
 159:.\Generated_Source\PSoC5/ILO_Trim_1.c ****             CY_SET_REG8(CYREG_ILO_TR1, 
 160:.\Generated_Source\PSoC5/ILO_Trim_1.c ****                 (uint8)(CY_GET_REG8(CYREG_ILO_TR1) & ILO_Trim_1_COARSE_TRIM_CLEAR)
 161:.\Generated_Source\PSoC5/ILO_Trim_1.c ****                 | ((uint8)((uint8)trimNew >> ILO_Trim_1_TRIM_SHIFT) & ILO_Trim_1_ILO_TR1_MASK));
 162:.\Generated_Source\PSoC5/ILO_Trim_1.c ****         #else
 163:.\Generated_Source\PSoC5/ILO_Trim_1.c ****             CY_SET_REG8(CYREG_ILO_TR0, 
 164:.\Generated_Source\PSoC5/ILO_Trim_1.c ****                 (uint8)(CY_GET_REG8(CYREG_ILO_TR0) & ILO_Trim_1_FINE_TRIM_CLEAR)
 165:.\Generated_Source\PSoC5/ILO_Trim_1.c ****                 | ((uint8)((uint8)trimNew << ILO_Trim_1_TRIM_SHIFT) & ILO_Trim_1_ILO_TR0_MASK));
 166:.\Generated_Source\PSoC5/ILO_Trim_1.c ****             CY_SET_REG8(CYREG_ILO_TR1, 
 167:.\Generated_Source\PSoC5/ILO_Trim_1.c ****                 (uint8)(CY_GET_REG8(CYREG_ILO_TR1) & ILO_Trim_1_COARSE_TRIM_CLEAR)
 168:.\Generated_Source\PSoC5/ILO_Trim_1.c ****                 | ((uint8)((uint8)trimNew >> ILO_Trim_1_TRIM_SHIFT) & ILO_Trim_1_ILO_TR1_MASK));
 169:.\Generated_Source\PSoC5/ILO_Trim_1.c ****         #endif /* End of ILO Frequency dependent code */
 170:.\Generated_Source\PSoC5/ILO_Trim_1.c ****         
 171:.\Generated_Source\PSoC5/ILO_Trim_1.c ****         /* Keep a copy of the old error */
 172:.\Generated_Source\PSoC5/ILO_Trim_1.c ****         errorOld = errorNewAbs;
 173:.\Generated_Source\PSoC5/ILO_Trim_1.c ****     }
 174:.\Generated_Source\PSoC5/ILO_Trim_1.c ****     
 175:.\Generated_Source\PSoC5/ILO_Trim_1.c ****     #ifdef ILO_Trim_1_CORRECTION_ITERATION_EXIT_CALLBACK
 176:.\Generated_Source\PSoC5/ILO_Trim_1.c ****         ILO_Trim_1_CorrectionIteration_ExitCallback();
 177:.\Generated_Source\PSoC5/ILO_Trim_1.c ****     #endif /* ILO_Trim_1_CORRECTION_ITERATION_EXIT_CALLBACK */
 178:.\Generated_Source\PSoC5/ILO_Trim_1.c **** }/* End CorrectionISR */
 179:.\Generated_Source\PSoC5/ILO_Trim_1.c **** 
 180:.\Generated_Source\PSoC5/ILO_Trim_1.c **** 
 181:.\Generated_Source\PSoC5/ILO_Trim_1.c **** /*******************************************************************************
 182:.\Generated_Source\PSoC5/ILO_Trim_1.c **** * Function Name: ILO_Trim_1_CheckStatus
 183:.\Generated_Source\PSoC5/ILO_Trim_1.c **** ********************************************************************************
 184:.\Generated_Source\PSoC5/ILO_Trim_1.c **** *
 185:.\Generated_Source\PSoC5/ILO_Trim_1.c **** * Summary: 
 186:.\Generated_Source\PSoC5/ILO_Trim_1.c **** *  Checks whether the ILO frequency is in the best possible error range.
 187:.\Generated_Source\PSoC5/ILO_Trim_1.c **** *
 188:.\Generated_Source\PSoC5/ILO_Trim_1.c **** * Parameters:
 189:.\Generated_Source\PSoC5/ILO_Trim_1.c **** *  None
 190:.\Generated_Source\PSoC5/ILO_Trim_1.c **** *
 191:.\Generated_Source\PSoC5/ILO_Trim_1.c **** * Return: 
 192:.\Generated_Source\PSoC5/ILO_Trim_1.c **** *  uint8 status
 193:.\Generated_Source\PSoC5/ILO_Trim_1.c **** *   IS_ACCURATE     ILO is within error range
 194:.\Generated_Source\PSoC5/ILO_Trim_1.c **** *   TRIMMING        CorrectionISR is running 
 195:.\Generated_Source\PSoC5/ILO_Trim_1.c **** *
 196:.\Generated_Source\PSoC5/ILO_Trim_1.c **** * Side Effects: 
 197:.\Generated_Source\PSoC5/ILO_Trim_1.c **** *  May not return correct value when called in the first 
 198:.\Generated_Source\PSoC5/ILO_Trim_1.c **** *  millisecond of component start.
 199:.\Generated_Source\PSoC5/ILO_Trim_1.c **** *
 200:.\Generated_Source\PSoC5/ILO_Trim_1.c **** *******************************************************************************/
 201:.\Generated_Source\PSoC5/ILO_Trim_1.c **** uint8 ILO_Trim_1_CheckStatus(void) 
 202:.\Generated_Source\PSoC5/ILO_Trim_1.c **** {
 203:.\Generated_Source\PSoC5/ILO_Trim_1.c **** 	uint16 errorAbs;
ARM GAS  C:\Users\doug_000\AppData\Local\Temp\ccAb5D0z.s 			page 5


 204:.\Generated_Source\PSoC5/ILO_Trim_1.c ****     int16 error;
 205:.\Generated_Source\PSoC5/ILO_Trim_1.c ****     uint8 isrOn;
 206:.\Generated_Source\PSoC5/ILO_Trim_1.c **** 	uint8 status = ILO_Trim_1_TRIMMED;
 207:.\Generated_Source\PSoC5/ILO_Trim_1.c **** 
 208:.\Generated_Source\PSoC5/ILO_Trim_1.c **** 	isrOn = ILO_Trim_1_CorrectionISR_GetState();
 209:.\Generated_Source\PSoC5/ILO_Trim_1.c **** 	
 210:.\Generated_Source\PSoC5/ILO_Trim_1.c **** 	/* Change status for CorrectionISR */
 211:.\Generated_Source\PSoC5/ILO_Trim_1.c **** 	if(isrOn!=ILO_Trim_1_ISR_OFF)
 212:.\Generated_Source\PSoC5/ILO_Trim_1.c ****     {
 213:.\Generated_Source\PSoC5/ILO_Trim_1.c **** 		status = ILO_Trim_1_TRIMMING;
 214:.\Generated_Source\PSoC5/ILO_Trim_1.c **** 	}
 215:.\Generated_Source\PSoC5/ILO_Trim_1.c **** 	
 216:.\Generated_Source\PSoC5/ILO_Trim_1.c ****     error = ILO_Trim_1_CheckError();
 217:.\Generated_Source\PSoC5/ILO_Trim_1.c ****     
 218:.\Generated_Source\PSoC5/ILO_Trim_1.c ****     if(error < ILO_Trim_1_ERROR_ZERO)
 219:.\Generated_Source\PSoC5/ILO_Trim_1.c ****     {
 220:.\Generated_Source\PSoC5/ILO_Trim_1.c ****         errorAbs = (uint16)(-error);
 221:.\Generated_Source\PSoC5/ILO_Trim_1.c ****     }
 222:.\Generated_Source\PSoC5/ILO_Trim_1.c ****     else
 223:.\Generated_Source\PSoC5/ILO_Trim_1.c ****     {
 224:.\Generated_Source\PSoC5/ILO_Trim_1.c ****          errorAbs = (uint16)error;
 225:.\Generated_Source\PSoC5/ILO_Trim_1.c ****     }
 226:.\Generated_Source\PSoC5/ILO_Trim_1.c **** 
 227:.\Generated_Source\PSoC5/ILO_Trim_1.c **** 	if(errorAbs <= ILO_Trim_1_PP_HUNDRED)
 228:.\Generated_Source\PSoC5/ILO_Trim_1.c **** 	{
 229:.\Generated_Source\PSoC5/ILO_Trim_1.c **** 		status |= ILO_Trim_1_IS_ACCURATE;
 230:.\Generated_Source\PSoC5/ILO_Trim_1.c **** 	}
 231:.\Generated_Source\PSoC5/ILO_Trim_1.c ****     
 232:.\Generated_Source\PSoC5/ILO_Trim_1.c **** 	return(status);
 233:.\Generated_Source\PSoC5/ILO_Trim_1.c **** }
 234:.\Generated_Source\PSoC5/ILO_Trim_1.c **** 
 235:.\Generated_Source\PSoC5/ILO_Trim_1.c **** #endif /* End of PSoC 3 and PSoC 5LP code */
 236:.\Generated_Source\PSoC5/ILO_Trim_1.c **** 
 237:.\Generated_Source\PSoC5/ILO_Trim_1.c **** 
 238:.\Generated_Source\PSoC5/ILO_Trim_1.c **** /*******************************************************************************
 239:.\Generated_Source\PSoC5/ILO_Trim_1.c **** * Function Name: ILO_Trim_1_CheckError
 240:.\Generated_Source\PSoC5/ILO_Trim_1.c **** ********************************************************************************
 241:.\Generated_Source\PSoC5/ILO_Trim_1.c **** *
 242:.\Generated_Source\PSoC5/ILO_Trim_1.c **** * Summary: 
 243:.\Generated_Source\PSoC5/ILO_Trim_1.c **** *  Calculates ILO error in parts per thousand.
 244:.\Generated_Source\PSoC5/ILO_Trim_1.c **** *
 245:.\Generated_Source\PSoC5/ILO_Trim_1.c **** * Parameters:
 246:.\Generated_Source\PSoC5/ILO_Trim_1.c **** *  None
 247:.\Generated_Source\PSoC5/ILO_Trim_1.c **** *
 248:.\Generated_Source\PSoC5/ILO_Trim_1.c **** * Return: 
 249:.\Generated_Source\PSoC5/ILO_Trim_1.c **** *  int16 error
 250:.\Generated_Source\PSoC5/ILO_Trim_1.c **** *   error value in parts per thousand.
 251:.\Generated_Source\PSoC5/ILO_Trim_1.c **** *
 252:.\Generated_Source\PSoC5/ILO_Trim_1.c **** * Side Effects:
 253:.\Generated_Source\PSoC5/ILO_Trim_1.c **** *  May not return correct value when called in the first 
 254:.\Generated_Source\PSoC5/ILO_Trim_1.c **** *  millisecond of component start.
 255:.\Generated_Source\PSoC5/ILO_Trim_1.c **** *
 256:.\Generated_Source\PSoC5/ILO_Trim_1.c **** *******************************************************************************/
 257:.\Generated_Source\PSoC5/ILO_Trim_1.c **** int16 ILO_Trim_1_CheckError(void) 
 258:.\Generated_Source\PSoC5/ILO_Trim_1.c **** {
 259:.\Generated_Source\PSoC5/ILO_Trim_1.c **** 	uint16 edgeCount;
 260:.\Generated_Source\PSoC5/ILO_Trim_1.c **** 	int16 error;
ARM GAS  C:\Users\doug_000\AppData\Local\Temp\ccAb5D0z.s 			page 6


 261:.\Generated_Source\PSoC5/ILO_Trim_1.c **** 
 262:.\Generated_Source\PSoC5/ILO_Trim_1.c **** 	edgeCount = ILO_Trim_1_ReadEdgeCount();
 263:.\Generated_Source\PSoC5/ILO_Trim_1.c **** 	
 264:.\Generated_Source\PSoC5/ILO_Trim_1.c ****     if(edgeCount != ILO_Trim_1_COUNT_ZERO)
 265:.\Generated_Source\PSoC5/ILO_Trim_1.c **** 	{
 266:.\Generated_Source\PSoC5/ILO_Trim_1.c ****         error = (int16)((uint16)((ILO_Trim_1_EDGES_PPT / edgeCount) - ILO_Trim_1_PP_THOUSAND));
 267:.\Generated_Source\PSoC5/ILO_Trim_1.c ****     }
 268:.\Generated_Source\PSoC5/ILO_Trim_1.c ****     else
 269:.\Generated_Source\PSoC5/ILO_Trim_1.c ****     {
 270:.\Generated_Source\PSoC5/ILO_Trim_1.c ****         error = (int16)ILO_Trim_1_COUNT_ZERO;
 271:.\Generated_Source\PSoC5/ILO_Trim_1.c ****     }
 272:.\Generated_Source\PSoC5/ILO_Trim_1.c **** 	
 273:.\Generated_Source\PSoC5/ILO_Trim_1.c **** 	return(error);
 274:.\Generated_Source\PSoC5/ILO_Trim_1.c **** }
 275:.\Generated_Source\PSoC5/ILO_Trim_1.c **** 
 276:.\Generated_Source\PSoC5/ILO_Trim_1.c **** 
 277:.\Generated_Source\PSoC5/ILO_Trim_1.c **** /*******************************************************************************
 278:.\Generated_Source\PSoC5/ILO_Trim_1.c **** * Function Name: ILO_Trim_1_Compensate
 279:.\Generated_Source\PSoC5/ILO_Trim_1.c **** ********************************************************************************
 280:.\Generated_Source\PSoC5/ILO_Trim_1.c **** *
 281:.\Generated_Source\PSoC5/ILO_Trim_1.c **** * Summary: 
 282:.\Generated_Source\PSoC5/ILO_Trim_1.c **** *  Compensates for the ILO clock inaccuracy by converting from a desired 
 283:.\Generated_Source\PSoC5/ILO_Trim_1.c **** *  nominal number of clock cycles to the effective number of ILO clock cycles 
 284:.\Generated_Source\PSoC5/ILO_Trim_1.c **** *  required based on the current accuracy of the ILO.  
 285:.\Generated_Source\PSoC5/ILO_Trim_1.c **** *
 286:.\Generated_Source\PSoC5/ILO_Trim_1.c **** * Parameters:
 287:.\Generated_Source\PSoC5/ILO_Trim_1.c **** *  targetTime
 288:.\Generated_Source\PSoC5/ILO_Trim_1.c **** *
 289:.\Generated_Source\PSoC5/ILO_Trim_1.c **** * Return: 
 290:.\Generated_Source\PSoC5/ILO_Trim_1.c **** *  uint16 scaleFactor
 291:.\Generated_Source\PSoC5/ILO_Trim_1.c **** *
 292:.\Generated_Source\PSoC5/ILO_Trim_1.c **** * Side Effects: 
 293:.\Generated_Source\PSoC5/ILO_Trim_1.c **** *  None
 294:.\Generated_Source\PSoC5/ILO_Trim_1.c **** *
 295:.\Generated_Source\PSoC5/ILO_Trim_1.c **** *******************************************************************************/
 296:.\Generated_Source\PSoC5/ILO_Trim_1.c **** uint16 ILO_Trim_1_Compensate(uint16 clocks) 
 297:.\Generated_Source\PSoC5/ILO_Trim_1.c **** {
 298:.\Generated_Source\PSoC5/ILO_Trim_1.c **** 	uint32 timeDesired, ILOActual, clocksActual;
 299:.\Generated_Source\PSoC5/ILO_Trim_1.c **** 	uint16 edgeCount, clocksOut;
 300:.\Generated_Source\PSoC5/ILO_Trim_1.c **** 	int16 error;
 301:.\Generated_Source\PSoC5/ILO_Trim_1.c **** 
 302:.\Generated_Source\PSoC5/ILO_Trim_1.c **** 	/* Calculate the user's target time */
 303:.\Generated_Source\PSoC5/ILO_Trim_1.c **** 	timeDesired = (uint32)(((uint32)clocks * ILO_Trim_1_TIME_SCALE) / ILO_Trim_1_ILO_FREQUENCY);
 304:.\Generated_Source\PSoC5/ILO_Trim_1.c **** 	
 305:.\Generated_Source\PSoC5/ILO_Trim_1.c **** 	/* Calculate the ILO error */
 306:.\Generated_Source\PSoC5/ILO_Trim_1.c **** 	edgeCount = ILO_Trim_1_ReadEdgeCount();
 307:.\Generated_Source\PSoC5/ILO_Trim_1.c **** 	if(edgeCount != ILO_Trim_1_COUNT_ZERO)
 308:.\Generated_Source\PSoC5/ILO_Trim_1.c **** 	{
 309:.\Generated_Source\PSoC5/ILO_Trim_1.c ****         /* ILO error is proportional to the difference of the inverse of edge count and EDGES_IDEAL
 310:.\Generated_Source\PSoC5/ILO_Trim_1.c ****         error = (int16)((uint16)((ILO_Trim_1_EDGES_PPH / edgeCount) - ILO_Trim_1_PP_HUNDRED));
 311:.\Generated_Source\PSoC5/ILO_Trim_1.c ****     }
 312:.\Generated_Source\PSoC5/ILO_Trim_1.c ****     else
 313:.\Generated_Source\PSoC5/ILO_Trim_1.c ****     {
 314:.\Generated_Source\PSoC5/ILO_Trim_1.c ****         error = (int16)ILO_Trim_1_COUNT_ZERO;
 315:.\Generated_Source\PSoC5/ILO_Trim_1.c ****     }
 316:.\Generated_Source\PSoC5/ILO_Trim_1.c ****     
 317:.\Generated_Source\PSoC5/ILO_Trim_1.c **** 	ILOActual = ((uint32)ILO_Trim_1_ILO_FREQUENCY * ILO_Trim_1_ILO_SCALE)
ARM GAS  C:\Users\doug_000\AppData\Local\Temp\ccAb5D0z.s 			page 7


 318:.\Generated_Source\PSoC5/ILO_Trim_1.c ****                 + ((uint32)ILO_Trim_1_ILO_FREQUENCY * (uint32)error);
 319:.\Generated_Source\PSoC5/ILO_Trim_1.c **** 	
 320:.\Generated_Source\PSoC5/ILO_Trim_1.c **** 	/* Calculate the scaled clock count */
 321:.\Generated_Source\PSoC5/ILO_Trim_1.c **** 	clocksActual = ILOActual * (timeDesired / ILO_Trim_1_ILO_SCALE);
 322:.\Generated_Source\PSoC5/ILO_Trim_1.c **** 	
 323:.\Generated_Source\PSoC5/ILO_Trim_1.c **** 	if((clocksActual / ILO_Trim_1_TIME_SCALE) > ILO_Trim_1_COUNTER_SATURATE)
 324:.\Generated_Source\PSoC5/ILO_Trim_1.c **** 	{
 325:.\Generated_Source\PSoC5/ILO_Trim_1.c **** 		clocksOut = ILO_Trim_1_COUNTER_SATURATE;
 326:.\Generated_Source\PSoC5/ILO_Trim_1.c **** 	}
 327:.\Generated_Source\PSoC5/ILO_Trim_1.c **** 	else
 328:.\Generated_Source\PSoC5/ILO_Trim_1.c **** 	{
 329:.\Generated_Source\PSoC5/ILO_Trim_1.c **** 		clocksOut = (uint16)(clocksActual / ILO_Trim_1_TIME_SCALE);
 330:.\Generated_Source\PSoC5/ILO_Trim_1.c **** 	}
 331:.\Generated_Source\PSoC5/ILO_Trim_1.c **** 	
 332:.\Generated_Source\PSoC5/ILO_Trim_1.c **** 	return(clocksOut);
 333:.\Generated_Source\PSoC5/ILO_Trim_1.c **** }
 334:.\Generated_Source\PSoC5/ILO_Trim_1.c **** 
 335:.\Generated_Source\PSoC5/ILO_Trim_1.c **** 
 336:.\Generated_Source\PSoC5/ILO_Trim_1.c **** /*******************************************************************************
 337:.\Generated_Source\PSoC5/ILO_Trim_1.c **** * Function Name: ILO_Trim_1_Start
 338:.\Generated_Source\PSoC5/ILO_Trim_1.c **** ********************************************************************************
 339:.\Generated_Source\PSoC5/ILO_Trim_1.c **** *
 340:.\Generated_Source\PSoC5/ILO_Trim_1.c **** * Summary:
 341:.\Generated_Source\PSoC5/ILO_Trim_1.c **** *  Enables the component.
 342:.\Generated_Source\PSoC5/ILO_Trim_1.c **** *
 343:.\Generated_Source\PSoC5/ILO_Trim_1.c **** * Parameters:
 344:.\Generated_Source\PSoC5/ILO_Trim_1.c **** *  None
 345:.\Generated_Source\PSoC5/ILO_Trim_1.c **** *
 346:.\Generated_Source\PSoC5/ILO_Trim_1.c **** * Return:
 347:.\Generated_Source\PSoC5/ILO_Trim_1.c **** *  None
 348:.\Generated_Source\PSoC5/ILO_Trim_1.c **** *
 349:.\Generated_Source\PSoC5/ILO_Trim_1.c **** * Side effects: 
 350:.\Generated_Source\PSoC5/ILO_Trim_1.c **** *  None
 351:.\Generated_Source\PSoC5/ILO_Trim_1.c **** *
 352:.\Generated_Source\PSoC5/ILO_Trim_1.c **** *******************************************************************************/
 353:.\Generated_Source\PSoC5/ILO_Trim_1.c **** void ILO_Trim_1_Start(void) 
 354:.\Generated_Source\PSoC5/ILO_Trim_1.c **** {
 355:.\Generated_Source\PSoC5/ILO_Trim_1.c ****     #if (!CY_PSOC4)
 356:.\Generated_Source\PSoC5/ILO_Trim_1.c **** 	    ILO_Trim_1_CorrectionISR_StartEx(&ILO_Trim_1_CorrectionIteration);
 357:.\Generated_Source\PSoC5/ILO_Trim_1.c ****     #endif /* Only available for PSoC 3 and PSoC 5LP */
 358:.\Generated_Source\PSoC5/ILO_Trim_1.c **** 	
 359:.\Generated_Source\PSoC5/ILO_Trim_1.c ****     ILO_Trim_1_CorrectionISR_Disable();	
 360:.\Generated_Source\PSoC5/ILO_Trim_1.c **** 	
 361:.\Generated_Source\PSoC5/ILO_Trim_1.c **** 	/* Store away the factory trim value */
 362:.\Generated_Source\PSoC5/ILO_Trim_1.c **** 	#if (!CY_PSOC4)
 363:.\Generated_Source\PSoC5/ILO_Trim_1.c ****         #if (ILO_Trim_1_ILO_FREQUENCY == ILO_Trim_1_1kHz)
 364:.\Generated_Source\PSoC5/ILO_Trim_1.c ****             /* 1k ILO fine trim - TR0[3:0] reserved for 1kHz ILO */
 365:.\Generated_Source\PSoC5/ILO_Trim_1.c ****             trimFactory = (uint8)((ILO_Trim_1_ILO_TR0_MASK & CY_GET_REG8(CYREG_ILO_TR0))
 366:.\Generated_Source\PSoC5/ILO_Trim_1.c ****                         |(uint8)((ILO_Trim_1_ILO_TR1_MASK & CY_GET_REG8(CYREG_ILO_TR1))
 367:.\Generated_Source\PSoC5/ILO_Trim_1.c ****                             << ILO_Trim_1_TRIM_SHIFT));
 368:.\Generated_Source\PSoC5/ILO_Trim_1.c ****         #else
 369:.\Generated_Source\PSoC5/ILO_Trim_1.c ****             /* 100k ILO fine trim - TR0[7:4] reserved for 100kHz ILO */
 370:.\Generated_Source\PSoC5/ILO_Trim_1.c ****             trimFactory = (uint8)((uint8)((ILO_Trim_1_ILO_TR0_MASK & CY_GET_REG8(CYREG_ILO_TR0))
 371:.\Generated_Source\PSoC5/ILO_Trim_1.c ****                             >>ILO_Trim_1_TRIM_SHIFT)
 372:.\Generated_Source\PSoC5/ILO_Trim_1.c ****                         |(uint8)((ILO_Trim_1_ILO_TR1_MASK & CY_GET_REG8(CYREG_ILO_TR1))
 373:.\Generated_Source\PSoC5/ILO_Trim_1.c ****                             << ILO_Trim_1_TRIM_SHIFT));
 374:.\Generated_Source\PSoC5/ILO_Trim_1.c ****         #endif /* End of ILO Frequency dependent code. */
ARM GAS  C:\Users\doug_000\AppData\Local\Temp\ccAb5D0z.s 			page 8


 375:.\Generated_Source\PSoC5/ILO_Trim_1.c **** 	#endif /* End of PSoC 3 and PSoC 5LP code */
 376:.\Generated_Source\PSoC5/ILO_Trim_1.c **** 	
 377:.\Generated_Source\PSoC5/ILO_Trim_1.c **** 	/* Start Edge_Counter */
 378:.\Generated_Source\PSoC5/ILO_Trim_1.c **** 	#if (!ILO_Trim_1_USING_FIXED_FUNCTION)
 379:.\Generated_Source\PSoC5/ILO_Trim_1.c **** 		/* Enable UDB Timer */
 380:.\Generated_Source\PSoC5/ILO_Trim_1.c **** 		ILO_Trim_1_CONTROL_REG |= ILO_Trim_1_CTRL_ENABLE;
 381:.\Generated_Source\PSoC5/ILO_Trim_1.c **** 	#else
 382:.\Generated_Source\PSoC5/ILO_Trim_1.c **** 		#if (CY_PSOC4)
 383:.\Generated_Source\PSoC5/ILO_Trim_1.c **** 			ILO_Trim_1_TCPWM_Start();
 384:.\Generated_Source\PSoC5/ILO_Trim_1.c **** 			ILO_Trim_1_TCPWM_TriggerCommand(ILO_Trim_1_TCPWM_MASK, ILO_Trim_1_TCPWM_CMD_START); 
 385:.\Generated_Source\PSoC5/ILO_Trim_1.c **** 		#else
 386:.\Generated_Source\PSoC5/ILO_Trim_1.c **** 			/* Enable FF Timer */
 387:.\Generated_Source\PSoC5/ILO_Trim_1.c **** 			/* Clear all bits but the enable bit (if it's already set) for Timer operation */
 388:.\Generated_Source\PSoC5/ILO_Trim_1.c **** 		    ILO_Trim_1_CONTROL_REG &= ILO_Trim_1_CTRL_ENABLE;
 389:.\Generated_Source\PSoC5/ILO_Trim_1.c **** 			
 390:.\Generated_Source\PSoC5/ILO_Trim_1.c **** 			/* CONTROL3 register exists only in PSoC3 OR PSoC5LP */
 391:.\Generated_Source\PSoC5/ILO_Trim_1.c **** 		    ILO_Trim_1_CONTROL3_REG &= ((uint8)(~ILO_Trim_1_CTRL_MODE_MASK));
 392:.\Generated_Source\PSoC5/ILO_Trim_1.c **** 
 393:.\Generated_Source\PSoC5/ILO_Trim_1.c **** 	        /*Enable DSI Sync on all inputs of the Timer*/
 394:.\Generated_Source\PSoC5/ILO_Trim_1.c **** 	        ILO_Trim_1_RT1_REG &= ((uint8)(~ILO_Trim_1_SYNCDSI_MASK));
 395:.\Generated_Source\PSoC5/ILO_Trim_1.c **** 	        ILO_Trim_1_RT1_REG |= ILO_Trim_1_SYNCDSI_EN;
 396:.\Generated_Source\PSoC5/ILO_Trim_1.c **** 		
 397:.\Generated_Source\PSoC5/ILO_Trim_1.c **** 		    /* Set Initial values from Configuration */
 398:.\Generated_Source\PSoC5/ILO_Trim_1.c **** 			CY_SET_REG16(ILO_Trim_1_PERIOD_LSB_PTR, ILO_Trim_1_INIT_PERIOD);
 399:.\Generated_Source\PSoC5/ILO_Trim_1.c **** 			CY_SET_REG16(ILO_Trim_1_COUNTER_LSB_PTR, ILO_Trim_1_INIT_PERIOD);
 400:.\Generated_Source\PSoC5/ILO_Trim_1.c **** 			
 401:.\Generated_Source\PSoC5/ILO_Trim_1.c **** 			ILO_Trim_1_GLOBAL_ENABLE |= ILO_Trim_1_BLOCK_EN_MASK;
 402:.\Generated_Source\PSoC5/ILO_Trim_1.c **** 	        ILO_Trim_1_GLOBAL_STBY_ENABLE |= ILO_Trim_1_BLOCK_STBY_EN_MASK;
 403:.\Generated_Source\PSoC5/ILO_Trim_1.c **** 
 404:.\Generated_Source\PSoC5/ILO_Trim_1.c **** 			ILO_Trim_1_CONTROL_REG |= ILO_Trim_1_CTRL_ENABLE;
 405:.\Generated_Source\PSoC5/ILO_Trim_1.c **** 		#endif /* End of PSoC 3 and PSoC 5LP code */
 406:.\Generated_Source\PSoC5/ILO_Trim_1.c **** 	#endif /* End of Fixed Function code */
 407:.\Generated_Source\PSoC5/ILO_Trim_1.c **** }
 408:.\Generated_Source\PSoC5/ILO_Trim_1.c **** 
 409:.\Generated_Source\PSoC5/ILO_Trim_1.c **** 
 410:.\Generated_Source\PSoC5/ILO_Trim_1.c **** /*******************************************************************************
 411:.\Generated_Source\PSoC5/ILO_Trim_1.c **** * Function Name: ILO_Trim_1_Stop
 412:.\Generated_Source\PSoC5/ILO_Trim_1.c **** ********************************************************************************
 413:.\Generated_Source\PSoC5/ILO_Trim_1.c **** *
 414:.\Generated_Source\PSoC5/ILO_Trim_1.c **** * Summary:
 415:.\Generated_Source\PSoC5/ILO_Trim_1.c **** *  Disables the component.
 416:.\Generated_Source\PSoC5/ILO_Trim_1.c **** *
 417:.\Generated_Source\PSoC5/ILO_Trim_1.c **** * Parameters:
 418:.\Generated_Source\PSoC5/ILO_Trim_1.c **** *  None
 419:.\Generated_Source\PSoC5/ILO_Trim_1.c **** *
 420:.\Generated_Source\PSoC5/ILO_Trim_1.c **** * Return:
 421:.\Generated_Source\PSoC5/ILO_Trim_1.c **** *  None
 422:.\Generated_Source\PSoC5/ILO_Trim_1.c **** *
 423:.\Generated_Source\PSoC5/ILO_Trim_1.c **** * Side effects:
 424:.\Generated_Source\PSoC5/ILO_Trim_1.c **** *  None
 425:.\Generated_Source\PSoC5/ILO_Trim_1.c **** *
 426:.\Generated_Source\PSoC5/ILO_Trim_1.c **** *******************************************************************************/
 427:.\Generated_Source\PSoC5/ILO_Trim_1.c **** void ILO_Trim_1_Stop(void) 
 428:.\Generated_Source\PSoC5/ILO_Trim_1.c **** {
 429:.\Generated_Source\PSoC5/ILO_Trim_1.c **** 	ILO_Trim_1_CorrectionISR_Disable();
 430:.\Generated_Source\PSoC5/ILO_Trim_1.c **** 	ILO_Trim_1_CorrectionISR_ClearPending();
 431:.\Generated_Source\PSoC5/ILO_Trim_1.c **** 	
ARM GAS  C:\Users\doug_000\AppData\Local\Temp\ccAb5D0z.s 			page 9


 432:.\Generated_Source\PSoC5/ILO_Trim_1.c ****     #if (!ILO_Trim_1_USING_FIXED_FUNCTION)
 433:.\Generated_Source\PSoC5/ILO_Trim_1.c **** 		/* Stop the Edge_Counter */
 434:.\Generated_Source\PSoC5/ILO_Trim_1.c **** 		ILO_Trim_1_CONTROL_REG &= ((uint8) ~ILO_Trim_1_CTRL_ENABLE);
 435:.\Generated_Source\PSoC5/ILO_Trim_1.c **** 	#else
 436:.\Generated_Source\PSoC5/ILO_Trim_1.c **** 		#if (CY_PSOC4)
 437:.\Generated_Source\PSoC5/ILO_Trim_1.c **** 			ILO_Trim_1_TCPWM_Stop();
 438:.\Generated_Source\PSoC5/ILO_Trim_1.c **** 		#else
 439:.\Generated_Source\PSoC5/ILO_Trim_1.c **** 			/* Disable Timer */
 440:.\Generated_Source\PSoC5/ILO_Trim_1.c **** 		    ILO_Trim_1_CONTROL_REG &= ((uint8)(~ILO_Trim_1_CTRL_ENABLE));
 441:.\Generated_Source\PSoC5/ILO_Trim_1.c **** 			
 442:.\Generated_Source\PSoC5/ILO_Trim_1.c **** 	        ILO_Trim_1_GLOBAL_ENABLE &= ((uint8)(~ILO_Trim_1_BLOCK_EN_MASK));
 443:.\Generated_Source\PSoC5/ILO_Trim_1.c **** 	        ILO_Trim_1_GLOBAL_STBY_ENABLE &= ((uint8)(~ILO_Trim_1_BLOCK_STBY_EN_MASK));
 444:.\Generated_Source\PSoC5/ILO_Trim_1.c **** 		#endif /* End of PSoC 3 and PSoC 5LP code */
 445:.\Generated_Source\PSoC5/ILO_Trim_1.c ****     #endif /* End of Fixed Function code */
 446:.\Generated_Source\PSoC5/ILO_Trim_1.c **** }
 447:.\Generated_Source\PSoC5/ILO_Trim_1.c **** 
 448:.\Generated_Source\PSoC5/ILO_Trim_1.c **** #if(!CY_PSOC4)
 449:.\Generated_Source\PSoC5/ILO_Trim_1.c **** 
 450:.\Generated_Source\PSoC5/ILO_Trim_1.c **** 
 451:.\Generated_Source\PSoC5/ILO_Trim_1.c **** /*******************************************************************************
 452:.\Generated_Source\PSoC5/ILO_Trim_1.c **** * Function Name: ILO_Trim_1_BeginTrimming
 453:.\Generated_Source\PSoC5/ILO_Trim_1.c **** ********************************************************************************
 454:.\Generated_Source\PSoC5/ILO_Trim_1.c **** *
 455:.\Generated_Source\PSoC5/ILO_Trim_1.c **** * Summary:
 456:.\Generated_Source\PSoC5/ILO_Trim_1.c **** *  Sets and starts the CorrectionISR vector. This causes the trimming 
 457:.\Generated_Source\PSoC5/ILO_Trim_1.c **** *  process to begin.
 458:.\Generated_Source\PSoC5/ILO_Trim_1.c **** *
 459:.\Generated_Source\PSoC5/ILO_Trim_1.c **** * Parameters:
 460:.\Generated_Source\PSoC5/ILO_Trim_1.c **** *  None
 461:.\Generated_Source\PSoC5/ILO_Trim_1.c **** *
 462:.\Generated_Source\PSoC5/ILO_Trim_1.c **** * Return:
 463:.\Generated_Source\PSoC5/ILO_Trim_1.c **** *  None
 464:.\Generated_Source\PSoC5/ILO_Trim_1.c **** *
 465:.\Generated_Source\PSoC5/ILO_Trim_1.c **** * Side effects: 
 466:.\Generated_Source\PSoC5/ILO_Trim_1.c **** *  None
 467:.\Generated_Source\PSoC5/ILO_Trim_1.c **** *
 468:.\Generated_Source\PSoC5/ILO_Trim_1.c **** *******************************************************************************/
 469:.\Generated_Source\PSoC5/ILO_Trim_1.c **** void ILO_Trim_1_BeginTrimming(void) 
 470:.\Generated_Source\PSoC5/ILO_Trim_1.c **** {
 471:.\Generated_Source\PSoC5/ILO_Trim_1.c ****     uint8 isrOn;
 472:.\Generated_Source\PSoC5/ILO_Trim_1.c ****     
 473:.\Generated_Source\PSoC5/ILO_Trim_1.c ****     isrOn = ILO_Trim_1_CorrectionISR_GetState();
 474:.\Generated_Source\PSoC5/ILO_Trim_1.c ****     if(isrOn == ILO_Trim_1_ISR_OFF)
 475:.\Generated_Source\PSoC5/ILO_Trim_1.c ****     {
 476:.\Generated_Source\PSoC5/ILO_Trim_1.c ****         ILO_Trim_1_CorrectionISR_Enable();
 477:.\Generated_Source\PSoC5/ILO_Trim_1.c ****     }
 478:.\Generated_Source\PSoC5/ILO_Trim_1.c **** }
 479:.\Generated_Source\PSoC5/ILO_Trim_1.c **** 
 480:.\Generated_Source\PSoC5/ILO_Trim_1.c **** 
 481:.\Generated_Source\PSoC5/ILO_Trim_1.c **** /*******************************************************************************
 482:.\Generated_Source\PSoC5/ILO_Trim_1.c **** * Function Name: ILO_Trim_1_StopTrimming
 483:.\Generated_Source\PSoC5/ILO_Trim_1.c **** ********************************************************************************
 484:.\Generated_Source\PSoC5/ILO_Trim_1.c **** *
 485:.\Generated_Source\PSoC5/ILO_Trim_1.c **** * Summary:
 486:.\Generated_Source\PSoC5/ILO_Trim_1.c **** *  Disables the CorrectionISR vector, clears pedning interrupts. 
 487:.\Generated_Source\PSoC5/ILO_Trim_1.c **** *  This causes the trimming process to stop.
 488:.\Generated_Source\PSoC5/ILO_Trim_1.c **** *
ARM GAS  C:\Users\doug_000\AppData\Local\Temp\ccAb5D0z.s 			page 10


 489:.\Generated_Source\PSoC5/ILO_Trim_1.c **** * Parameters:
 490:.\Generated_Source\PSoC5/ILO_Trim_1.c **** *  None
 491:.\Generated_Source\PSoC5/ILO_Trim_1.c **** *
 492:.\Generated_Source\PSoC5/ILO_Trim_1.c **** * Return:
 493:.\Generated_Source\PSoC5/ILO_Trim_1.c **** *  None
 494:.\Generated_Source\PSoC5/ILO_Trim_1.c **** *
 495:.\Generated_Source\PSoC5/ILO_Trim_1.c **** * Side Effects: 
 496:.\Generated_Source\PSoC5/ILO_Trim_1.c **** *  Turns the isr off
 497:.\Generated_Source\PSoC5/ILO_Trim_1.c **** *
 498:.\Generated_Source\PSoC5/ILO_Trim_1.c **** *******************************************************************************/
 499:.\Generated_Source\PSoC5/ILO_Trim_1.c **** void ILO_Trim_1_StopTrimming(void) 
 500:.\Generated_Source\PSoC5/ILO_Trim_1.c **** {
 501:.\Generated_Source\PSoC5/ILO_Trim_1.c ****     uint8 isrOn;
 502:.\Generated_Source\PSoC5/ILO_Trim_1.c ****     
 503:.\Generated_Source\PSoC5/ILO_Trim_1.c ****     isrOn = ILO_Trim_1_CorrectionISR_GetState();
 504:.\Generated_Source\PSoC5/ILO_Trim_1.c ****     if(isrOn != ILO_Trim_1_ISR_OFF)
 505:.\Generated_Source\PSoC5/ILO_Trim_1.c ****     {
 506:.\Generated_Source\PSoC5/ILO_Trim_1.c ****         ILO_Trim_1_CorrectionISR_Disable();
 507:.\Generated_Source\PSoC5/ILO_Trim_1.c ****         ILO_Trim_1_CorrectionISR_ClearPending();
 508:.\Generated_Source\PSoC5/ILO_Trim_1.c ****     }
 509:.\Generated_Source\PSoC5/ILO_Trim_1.c **** }
 510:.\Generated_Source\PSoC5/ILO_Trim_1.c **** 
 511:.\Generated_Source\PSoC5/ILO_Trim_1.c **** 
 512:.\Generated_Source\PSoC5/ILO_Trim_1.c **** /*******************************************************************************
 513:.\Generated_Source\PSoC5/ILO_Trim_1.c **** * Function Name: ILO_Trim_1_RestoreTrim
 514:.\Generated_Source\PSoC5/ILO_Trim_1.c **** ********************************************************************************
 515:.\Generated_Source\PSoC5/ILO_Trim_1.c **** *
 516:.\Generated_Source\PSoC5/ILO_Trim_1.c **** * Summary: 
 517:.\Generated_Source\PSoC5/ILO_Trim_1.c **** *  Restores ILO factory trim.
 518:.\Generated_Source\PSoC5/ILO_Trim_1.c **** *
 519:.\Generated_Source\PSoC5/ILO_Trim_1.c **** * Parameters:
 520:.\Generated_Source\PSoC5/ILO_Trim_1.c **** *  None
 521:.\Generated_Source\PSoC5/ILO_Trim_1.c **** *
 522:.\Generated_Source\PSoC5/ILO_Trim_1.c **** * Return:
 523:.\Generated_Source\PSoC5/ILO_Trim_1.c **** *  None
 524:.\Generated_Source\PSoC5/ILO_Trim_1.c **** *
 525:.\Generated_Source\PSoC5/ILO_Trim_1.c **** * Side Effects: 
 526:.\Generated_Source\PSoC5/ILO_Trim_1.c **** *  Turns off the isr.
 527:.\Generated_Source\PSoC5/ILO_Trim_1.c **** *
 528:.\Generated_Source\PSoC5/ILO_Trim_1.c **** *******************************************************************************/
 529:.\Generated_Source\PSoC5/ILO_Trim_1.c **** void ILO_Trim_1_RestoreTrim(void) 
 530:.\Generated_Source\PSoC5/ILO_Trim_1.c **** {
 531:.\Generated_Source\PSoC5/ILO_Trim_1.c **** 	ILO_Trim_1_CorrectionISR_ClearPending();
 532:.\Generated_Source\PSoC5/ILO_Trim_1.c **** 	ILO_Trim_1_CorrectionISR_Disable();
 533:.\Generated_Source\PSoC5/ILO_Trim_1.c **** 	
 534:.\Generated_Source\PSoC5/ILO_Trim_1.c ****     #if (ILO_Trim_1_ILO_FREQUENCY == ILO_Trim_1_1kHz)
 535:.\Generated_Source\PSoC5/ILO_Trim_1.c ****         CY_SET_REG8(CYREG_ILO_TR0, 
 536:.\Generated_Source\PSoC5/ILO_Trim_1.c ****             (uint8)(CY_GET_REG8(CYREG_ILO_TR0) & ILO_Trim_1_FINE_TRIM_CLEAR)
 537:.\Generated_Source\PSoC5/ILO_Trim_1.c ****             | (trimFactory & ILO_Trim_1_ILO_TR0_MASK));
 538:.\Generated_Source\PSoC5/ILO_Trim_1.c ****         CY_SET_REG8(CYREG_ILO_TR1, 
 539:.\Generated_Source\PSoC5/ILO_Trim_1.c ****             (uint8)(CY_GET_REG8(CYREG_ILO_TR1) & ILO_Trim_1_COARSE_TRIM_CLEAR)
 540:.\Generated_Source\PSoC5/ILO_Trim_1.c ****             | ((uint8)((uint8)trimFactory >> ILO_Trim_1_TRIM_SHIFT) & ILO_Trim_1_ILO_TR1_MASK));
 541:.\Generated_Source\PSoC5/ILO_Trim_1.c ****     #else
 542:.\Generated_Source\PSoC5/ILO_Trim_1.c ****         CY_SET_REG8(CYREG_ILO_TR0, 
 543:.\Generated_Source\PSoC5/ILO_Trim_1.c ****             (uint8)(CY_GET_REG8(CYREG_ILO_TR0) & ILO_Trim_1_FINE_TRIM_CLEAR)
 544:.\Generated_Source\PSoC5/ILO_Trim_1.c ****             | ((uint8)((uint8)trimFactory << ILO_Trim_1_TRIM_SHIFT) & ILO_Trim_1_ILO_TR0_MASK));
 545:.\Generated_Source\PSoC5/ILO_Trim_1.c ****         CY_SET_REG8(CYREG_ILO_TR1, 
ARM GAS  C:\Users\doug_000\AppData\Local\Temp\ccAb5D0z.s 			page 11


 546:.\Generated_Source\PSoC5/ILO_Trim_1.c ****             (uint8)(CY_GET_REG8(CYREG_ILO_TR1) & ILO_Trim_1_COARSE_TRIM_CLEAR)
 547:.\Generated_Source\PSoC5/ILO_Trim_1.c ****             | ((uint8)((uint8)trimFactory >> ILO_Trim_1_TRIM_SHIFT) & ILO_Trim_1_ILO_TR1_MASK));
 548:.\Generated_Source\PSoC5/ILO_Trim_1.c ****     #endif /* End of ILO Frequency dependent code */
 549:.\Generated_Source\PSoC5/ILO_Trim_1.c **** }
 550:.\Generated_Source\PSoC5/ILO_Trim_1.c **** 
 551:.\Generated_Source\PSoC5/ILO_Trim_1.c **** 
 552:.\Generated_Source\PSoC5/ILO_Trim_1.c **** /*******************************************************************************
 553:.\Generated_Source\PSoC5/ILO_Trim_1.c **** * Function Name: ILO_Trim_1_GetTrim
 554:.\Generated_Source\PSoC5/ILO_Trim_1.c **** ********************************************************************************
 555:.\Generated_Source\PSoC5/ILO_Trim_1.c **** *
 556:.\Generated_Source\PSoC5/ILO_Trim_1.c **** * Summary:
 557:.\Generated_Source\PSoC5/ILO_Trim_1.c **** *  Returns the current ILO trim value
 558:.\Generated_Source\PSoC5/ILO_Trim_1.c **** *
 559:.\Generated_Source\PSoC5/ILO_Trim_1.c **** * Parameters:
 560:.\Generated_Source\PSoC5/ILO_Trim_1.c **** *  None
 561:.\Generated_Source\PSoC5/ILO_Trim_1.c **** *
 562:.\Generated_Source\PSoC5/ILO_Trim_1.c **** * Return:
 563:.\Generated_Source\PSoC5/ILO_Trim_1.c **** *  None
 564:.\Generated_Source\PSoC5/ILO_Trim_1.c **** *
 565:.\Generated_Source\PSoC5/ILO_Trim_1.c **** * Side Effects:
 566:.\Generated_Source\PSoC5/ILO_Trim_1.c **** *  None
 567:.\Generated_Source\PSoC5/ILO_Trim_1.c **** *
 568:.\Generated_Source\PSoC5/ILO_Trim_1.c **** *******************************************************************************/
 569:.\Generated_Source\PSoC5/ILO_Trim_1.c **** uint8 ILO_Trim_1_GetTrim(void) 
 570:.\Generated_Source\PSoC5/ILO_Trim_1.c **** {
 571:.\Generated_Source\PSoC5/ILO_Trim_1.c **** 	uint8 trimVal;
 572:.\Generated_Source\PSoC5/ILO_Trim_1.c **** 	
 573:.\Generated_Source\PSoC5/ILO_Trim_1.c **** 	#if (ILO_Trim_1_ILO_FREQUENCY == ILO_Trim_1_1kHz)
 574:.\Generated_Source\PSoC5/ILO_Trim_1.c **** 		/* 1k ILO fine trim - TR0[3:0] reserved for 1kHz ILO */
 575:.\Generated_Source\PSoC5/ILO_Trim_1.c **** 		trimVal = (uint8)((ILO_Trim_1_ILO_TR0_MASK & CY_GET_REG8(CYREG_ILO_TR0))
 576:.\Generated_Source\PSoC5/ILO_Trim_1.c ****                     | (uint8)((uint8)(ILO_Trim_1_ILO_TR1_MASK & CY_GET_REG8(CYREG_ILO_TR1)) 
 577:.\Generated_Source\PSoC5/ILO_Trim_1.c ****                     << ILO_Trim_1_TRIM_SHIFT));
 578:.\Generated_Source\PSoC5/ILO_Trim_1.c **** 	#else
 579:.\Generated_Source\PSoC5/ILO_Trim_1.c **** 		/* 100k ILO fine trim - TR0[7:4] reserved for 100kHz ILO */
 580:.\Generated_Source\PSoC5/ILO_Trim_1.c **** 		trimVal = (uint8)((uint8)((uint8)(ILO_Trim_1_ILO_TR0_MASK & CY_GET_REG8(CYREG_ILO_TR0))
 581:.\Generated_Source\PSoC5/ILO_Trim_1.c ****                     >> ILO_Trim_1_TRIM_SHIFT)
 582:.\Generated_Source\PSoC5/ILO_Trim_1.c ****                     | (uint8)((uint8)(ILO_Trim_1_ILO_TR1_MASK & CY_GET_REG8(CYREG_ILO_TR1)) 
 583:.\Generated_Source\PSoC5/ILO_Trim_1.c ****                     << ILO_Trim_1_TRIM_SHIFT));
 584:.\Generated_Source\PSoC5/ILO_Trim_1.c **** 	#endif /* End of ILO Frequency dependent code */
 585:.\Generated_Source\PSoC5/ILO_Trim_1.c **** 	
 586:.\Generated_Source\PSoC5/ILO_Trim_1.c **** 	return trimVal;
 587:.\Generated_Source\PSoC5/ILO_Trim_1.c **** }
 588:.\Generated_Source\PSoC5/ILO_Trim_1.c **** 
 589:.\Generated_Source\PSoC5/ILO_Trim_1.c **** 
 590:.\Generated_Source\PSoC5/ILO_Trim_1.c **** /*******************************************************************************
 591:.\Generated_Source\PSoC5/ILO_Trim_1.c **** * Function Name: ILO_Trim_1_SetTrim
 592:.\Generated_Source\PSoC5/ILO_Trim_1.c **** ********************************************************************************
 593:.\Generated_Source\PSoC5/ILO_Trim_1.c **** *
 594:.\Generated_Source\PSoC5/ILO_Trim_1.c **** * Summary:
 595:.\Generated_Source\PSoC5/ILO_Trim_1.c **** *  Sets the ILO trim value
 596:.\Generated_Source\PSoC5/ILO_Trim_1.c **** *
 597:.\Generated_Source\PSoC5/ILO_Trim_1.c **** * Parameters:
 598:.\Generated_Source\PSoC5/ILO_Trim_1.c **** *  None
 599:.\Generated_Source\PSoC5/ILO_Trim_1.c **** *
 600:.\Generated_Source\PSoC5/ILO_Trim_1.c **** * Return:
 601:.\Generated_Source\PSoC5/ILO_Trim_1.c **** *  None
 602:.\Generated_Source\PSoC5/ILO_Trim_1.c **** *
ARM GAS  C:\Users\doug_000\AppData\Local\Temp\ccAb5D0z.s 			page 12


 603:.\Generated_Source\PSoC5/ILO_Trim_1.c **** * Side Effects:
 604:.\Generated_Source\PSoC5/ILO_Trim_1.c **** *  None
 605:.\Generated_Source\PSoC5/ILO_Trim_1.c **** *
 606:.\Generated_Source\PSoC5/ILO_Trim_1.c **** *******************************************************************************/
 607:.\Generated_Source\PSoC5/ILO_Trim_1.c **** void ILO_Trim_1_SetTrim(uint8 trimVal) 
 608:.\Generated_Source\PSoC5/ILO_Trim_1.c **** {
 609:.\Generated_Source\PSoC5/ILO_Trim_1.c ****     #if (ILO_Trim_1_ILO_FREQUENCY == ILO_Trim_1_1kHz)
 610:.\Generated_Source\PSoC5/ILO_Trim_1.c ****         CY_SET_REG8(CYREG_ILO_TR0, 
 611:.\Generated_Source\PSoC5/ILO_Trim_1.c ****             (uint8)(CY_GET_REG8(CYREG_ILO_TR0) & ILO_Trim_1_FINE_TRIM_CLEAR)
 612:.\Generated_Source\PSoC5/ILO_Trim_1.c ****             | (trimVal & ILO_Trim_1_ILO_TR0_MASK));
 613:.\Generated_Source\PSoC5/ILO_Trim_1.c ****         CY_SET_REG8(CYREG_ILO_TR1, 
 614:.\Generated_Source\PSoC5/ILO_Trim_1.c ****             (uint8)(CY_GET_REG8(CYREG_ILO_TR1) & ILO_Trim_1_COARSE_TRIM_CLEAR)
 615:.\Generated_Source\PSoC5/ILO_Trim_1.c ****             | ((uint8)((uint8)trimVal >> ILO_Trim_1_TRIM_SHIFT) & ILO_Trim_1_ILO_TR1_MASK));
 616:.\Generated_Source\PSoC5/ILO_Trim_1.c ****     #else
 617:.\Generated_Source\PSoC5/ILO_Trim_1.c ****         CY_SET_REG8(CYREG_ILO_TR0, 
 618:.\Generated_Source\PSoC5/ILO_Trim_1.c ****             (uint8)(CY_GET_REG8(CYREG_ILO_TR0) & ILO_Trim_1_FINE_TRIM_CLEAR)
 619:.\Generated_Source\PSoC5/ILO_Trim_1.c ****             | ((uint8)((uint8)trimVal << ILO_Trim_1_TRIM_SHIFT) & ILO_Trim_1_ILO_TR0_MASK));
 620:.\Generated_Source\PSoC5/ILO_Trim_1.c ****         CY_SET_REG8(CYREG_ILO_TR1, 
 621:.\Generated_Source\PSoC5/ILO_Trim_1.c ****             (uint8)(CY_GET_REG8(CYREG_ILO_TR1) & ILO_Trim_1_COARSE_TRIM_CLEAR)
 622:.\Generated_Source\PSoC5/ILO_Trim_1.c ****             | ((uint8)((uint8)trimVal >> ILO_Trim_1_TRIM_SHIFT) & ILO_Trim_1_ILO_TR1_MASK));
 623:.\Generated_Source\PSoC5/ILO_Trim_1.c ****     #endif /* End of ILO Frequency dependent code */
 624:.\Generated_Source\PSoC5/ILO_Trim_1.c **** }
 625:.\Generated_Source\PSoC5/ILO_Trim_1.c **** 
 626:.\Generated_Source\PSoC5/ILO_Trim_1.c **** #endif /* End of PSoC 3 and PSoC 5LP code */
 627:.\Generated_Source\PSoC5/ILO_Trim_1.c **** /* End of non-PSoC 4 code */
 628:.\Generated_Source\PSoC5/ILO_Trim_1.c **** 
 629:.\Generated_Source\PSoC5/ILO_Trim_1.c **** 
 630:.\Generated_Source\PSoC5/ILO_Trim_1.c **** /******************************************************************************
 631:.\Generated_Source\PSoC5/ILO_Trim_1.c **** * Function Name: ILO_Trim_1_ReadCapture
 632:.\Generated_Source\PSoC5/ILO_Trim_1.c **** *******************************************************************************
 633:.\Generated_Source\PSoC5/ILO_Trim_1.c **** * Summary:
 634:.\Generated_Source\PSoC5/ILO_Trim_1.c **** *  Retrieves the value held in the capture register.
 635:.\Generated_Source\PSoC5/ILO_Trim_1.c **** *
 636:.\Generated_Source\PSoC5/ILO_Trim_1.c **** * Parameters:
 637:.\Generated_Source\PSoC5/ILO_Trim_1.c **** *  None
 638:.\Generated_Source\PSoC5/ILO_Trim_1.c **** *
 639:.\Generated_Source\PSoC5/ILO_Trim_1.c **** * Return:
 640:.\Generated_Source\PSoC5/ILO_Trim_1.c **** *  None
 641:.\Generated_Source\PSoC5/ILO_Trim_1.c **** *
 642:.\Generated_Source\PSoC5/ILO_Trim_1.c **** *******************************************************************************/
 643:.\Generated_Source\PSoC5/ILO_Trim_1.c **** static uint16 ILO_Trim_1_ReadCapture(void) CYREENTRANT
 644:.\Generated_Source\PSoC5/ILO_Trim_1.c **** {
  26              		.loc 1 644 0
  27              		.cfi_startproc
  28              		@ args = 0, pretend = 0, frame = 0
  29              		@ frame_needed = 0, uses_anonymous_args = 0
  30              		@ link register save eliminated.
 645:.\Generated_Source\PSoC5/ILO_Trim_1.c **** 	uint16 captured;
 646:.\Generated_Source\PSoC5/ILO_Trim_1.c ****     /* Get the captured counter value */
 647:.\Generated_Source\PSoC5/ILO_Trim_1.c **** 	#if (!ILO_Trim_1_USING_FIXED_FUNCTION)
 648:.\Generated_Source\PSoC5/ILO_Trim_1.c ****         captured = CY_GET_REG8(ILO_Trim_1_CAPTURE_PTR);
 649:.\Generated_Source\PSoC5/ILO_Trim_1.c **** 	#else
 650:.\Generated_Source\PSoC5/ILO_Trim_1.c **** 		#if (CY_PSOC4)
 651:.\Generated_Source\PSoC5/ILO_Trim_1.c **** 			captured = (uint16)ILO_Trim_1_TCPWM_ReadCapture();
 652:.\Generated_Source\PSoC5/ILO_Trim_1.c **** 		#else
 653:.\Generated_Source\PSoC5/ILO_Trim_1.c **** 			captured = CY_GET_REG16(ILO_Trim_1_CAPTURE_LSB_PTR);
  31              		.loc 1 653 0
ARM GAS  C:\Users\doug_000\AppData\Local\Temp\ccAb5D0z.s 			page 13


  32 0000 014B     		ldr	r3, .L2
  33 0002 1888     		ldrh	r0, [r3]
  34              	.LVL0:
 654:.\Generated_Source\PSoC5/ILO_Trim_1.c **** 		#endif /* End of PSoC 3 and PSoC 5LP code */
 655:.\Generated_Source\PSoC5/ILO_Trim_1.c **** 	#endif /* End of Fixed Function code */
 656:.\Generated_Source\PSoC5/ILO_Trim_1.c **** 	
 657:.\Generated_Source\PSoC5/ILO_Trim_1.c **** 	return captured;
 658:.\Generated_Source\PSoC5/ILO_Trim_1.c **** }
  35              		.loc 1 658 0
  36 0004 80B2     		uxth	r0, r0
  37 0006 7047     		bx	lr
  38              	.L3:
  39              		.align	2
  40              	.L2:
  41 0008 084F0040 		.word	1073762056
  42              		.cfi_endproc
  43              	.LFE11:
  44              		.size	ILO_Trim_1_ReadCapture, .-ILO_Trim_1_ReadCapture
  45              		.section	.text.ILO_Trim_1_ReadEdgeCount,"ax",%progbits
  46              		.align	2
  47              		.thumb
  48              		.thumb_func
  49              		.type	ILO_Trim_1_ReadEdgeCount, %function
  50              	ILO_Trim_1_ReadEdgeCount:
  51              	.LFB12:
 659:.\Generated_Source\PSoC5/ILO_Trim_1.c **** 
 660:.\Generated_Source\PSoC5/ILO_Trim_1.c **** 
 661:.\Generated_Source\PSoC5/ILO_Trim_1.c **** /******************************************************************************
 662:.\Generated_Source\PSoC5/ILO_Trim_1.c **** * Function Name: ILO_Trim_1_ReadEdgeCount
 663:.\Generated_Source\PSoC5/ILO_Trim_1.c **** *******************************************************************************
 664:.\Generated_Source\PSoC5/ILO_Trim_1.c **** * Summary:
 665:.\Generated_Source\PSoC5/ILO_Trim_1.c **** *  Calculates the edge count
 666:.\Generated_Source\PSoC5/ILO_Trim_1.c **** *
 667:.\Generated_Source\PSoC5/ILO_Trim_1.c **** * Parameters:
 668:.\Generated_Source\PSoC5/ILO_Trim_1.c **** *  None
 669:.\Generated_Source\PSoC5/ILO_Trim_1.c **** *
 670:.\Generated_Source\PSoC5/ILO_Trim_1.c **** * Return:
 671:.\Generated_Source\PSoC5/ILO_Trim_1.c **** *  None
 672:.\Generated_Source\PSoC5/ILO_Trim_1.c **** *
 673:.\Generated_Source\PSoC5/ILO_Trim_1.c **** *******************************************************************************/
 674:.\Generated_Source\PSoC5/ILO_Trim_1.c **** static uint16 ILO_Trim_1_ReadEdgeCount(void) CYREENTRANT
 675:.\Generated_Source\PSoC5/ILO_Trim_1.c **** {
  52              		.loc 1 675 0
  53              		.cfi_startproc
  54              		@ args = 0, pretend = 0, frame = 0
  55              		@ frame_needed = 0, uses_anonymous_args = 0
  56 0000 38B5     		push	{r3, r4, r5, lr}
  57              		.cfi_def_cfa_offset 16
  58              		.cfi_offset 3, -16
  59              		.cfi_offset 4, -12
  60              		.cfi_offset 5, -8
  61              		.cfi_offset 14, -4
 676:.\Generated_Source\PSoC5/ILO_Trim_1.c **** 	uint16 edgecount, captureOld, captureNew;
 677:.\Generated_Source\PSoC5/ILO_Trim_1.c **** 	
 678:.\Generated_Source\PSoC5/ILO_Trim_1.c **** 	captureOld = ILO_Trim_1_ReadCapture();
  62              		.loc 1 678 0
  63 0002 FFF7FEFF 		bl	ILO_Trim_1_ReadCapture
ARM GAS  C:\Users\doug_000\AppData\Local\Temp\ccAb5D0z.s 			page 14


  64              	.LVL1:
  65 0006 0546     		mov	r5, r0
  66              	.LVL2:
 679:.\Generated_Source\PSoC5/ILO_Trim_1.c **** 	captureNew = ILO_Trim_1_ReadCapture();
  67              		.loc 1 679 0
  68 0008 FFF7FEFF 		bl	ILO_Trim_1_ReadCapture
  69              	.LVL3:
  70 000c 0446     		mov	r4, r0
  71              	.LVL4:
 680:.\Generated_Source\PSoC5/ILO_Trim_1.c **** 	
 681:.\Generated_Source\PSoC5/ILO_Trim_1.c **** 	/* Make sure that the read value is correct (perhaps read on transition) */
 682:.\Generated_Source\PSoC5/ILO_Trim_1.c **** 	while (captureOld != captureNew)
  72              		.loc 1 682 0
  73 000e 05E0     		b	.L5
  74              	.L6:
 683:.\Generated_Source\PSoC5/ILO_Trim_1.c **** 	{	
 684:.\Generated_Source\PSoC5/ILO_Trim_1.c **** 		captureNew = ILO_Trim_1_ReadCapture();
  75              		.loc 1 684 0
  76 0010 FFF7FEFF 		bl	ILO_Trim_1_ReadCapture
  77              	.LVL5:
  78 0014 0446     		mov	r4, r0
  79              	.LVL6:
 685:.\Generated_Source\PSoC5/ILO_Trim_1.c **** 		captureOld = ILO_Trim_1_ReadCapture();
  80              		.loc 1 685 0
  81 0016 FFF7FEFF 		bl	ILO_Trim_1_ReadCapture
  82              	.LVL7:
  83 001a 0546     		mov	r5, r0
  84              	.LVL8:
  85              	.L5:
 682:.\Generated_Source\PSoC5/ILO_Trim_1.c **** 	{	
  86              		.loc 1 682 0
  87 001c A542     		cmp	r5, r4
  88 001e F7D1     		bne	.L6
 686:.\Generated_Source\PSoC5/ILO_Trim_1.c **** 	}
 687:.\Generated_Source\PSoC5/ILO_Trim_1.c **** 	
 688:.\Generated_Source\PSoC5/ILO_Trim_1.c **** 	/* Make the captured value into a real count number. Then add the offset term.    */
 689:.\Generated_Source\PSoC5/ILO_Trim_1.c **** 	/* The offsets are different for PSoC 4 */
 690:.\Generated_Source\PSoC5/ILO_Trim_1.c ****     #if(CY_PSOC4)
 691:.\Generated_Source\PSoC5/ILO_Trim_1.c ****         edgecount = (ILO_Trim_1_RESOLUTION - captureNew) - ILO_Trim_1_TIMER_OFFSET;
 692:.\Generated_Source\PSoC5/ILO_Trim_1.c ****     #else
 693:.\Generated_Source\PSoC5/ILO_Trim_1.c **** 	    edgecount = (ILO_Trim_1_RESOLUTION - captureNew) + ILO_Trim_1_TIMER_OFFSET;
  89              		.loc 1 693 0
  90 0020 C4F10200 		rsb	r0, r4, #2
  91              	.LVL9:
 694:.\Generated_Source\PSoC5/ILO_Trim_1.c **** 	#endif /* End of PSoC 3 and PSoC 5LP code */
 695:.\Generated_Source\PSoC5/ILO_Trim_1.c ****     
 696:.\Generated_Source\PSoC5/ILO_Trim_1.c **** 	return edgecount;
 697:.\Generated_Source\PSoC5/ILO_Trim_1.c **** }
  92              		.loc 1 697 0
  93 0024 80B2     		uxth	r0, r0
  94 0026 38BD     		pop	{r3, r4, r5, pc}
  95              		.cfi_endproc
  96              	.LFE12:
  97              		.size	ILO_Trim_1_ReadEdgeCount, .-ILO_Trim_1_ReadEdgeCount
  98              		.section	.text.ILO_Trim_1_CorrectionIteration,"ax",%progbits
  99              		.align	2
 100              		.global	ILO_Trim_1_CorrectionIteration
ARM GAS  C:\Users\doug_000\AppData\Local\Temp\ccAb5D0z.s 			page 15


 101              		.thumb
 102              		.thumb_func
 103              		.type	ILO_Trim_1_CorrectionIteration, %function
 104              	ILO_Trim_1_CorrectionIteration:
 105              	.LFB0:
  54:.\Generated_Source\PSoC5/ILO_Trim_1.c ****     uint16 edgeCount, errorNewAbs;
 106              		.loc 1 54 0
 107              		.cfi_startproc
 108              		@ args = 0, pretend = 0, frame = 0
 109              		@ frame_needed = 0, uses_anonymous_args = 0
  66:.\Generated_Source\PSoC5/ILO_Trim_1.c ****     {
 110              		.loc 1 66 0
 111 0000 324B     		ldr	r3, .L23
 112 0002 1B78     		ldrb	r3, [r3]	@ zero_extendqisi2
 113 0004 012B     		cmp	r3, #1
 114 0006 0BD1     		bne	.L9
  68:.\Generated_Source\PSoC5/ILO_Trim_1.c ****         {
 115              		.loc 1 68 0
 116 0008 314B     		ldr	r3, .L23+4
 117 000a 1B78     		ldrb	r3, [r3]	@ zero_extendqisi2
 118 000c 042B     		cmp	r3, #4
 119 000e 03D1     		bne	.L10
  70:.\Generated_Source\PSoC5/ILO_Trim_1.c ****         }
 120              		.loc 1 70 0
 121 0010 0022     		movs	r2, #0
 122 0012 2E4B     		ldr	r3, .L23
 123 0014 1A70     		strb	r2, [r3]
 124 0016 7047     		bx	lr
 125              	.L10:
  75:.\Generated_Source\PSoC5/ILO_Trim_1.c ****         }
 126              		.loc 1 75 0
 127 0018 0133     		adds	r3, r3, #1
 128 001a 2D4A     		ldr	r2, .L23+4
 129 001c 1370     		strb	r3, [r2]
 130 001e 7047     		bx	lr
 131              	.L9:
  54:.\Generated_Source\PSoC5/ILO_Trim_1.c ****     uint16 edgeCount, errorNewAbs;
 132              		.loc 1 54 0
 133 0020 10B5     		push	{r4, lr}
 134              		.cfi_def_cfa_offset 8
 135              		.cfi_offset 4, -8
 136              		.cfi_offset 14, -4
  80:.\Generated_Source\PSoC5/ILO_Trim_1.c ****         
 137              		.loc 1 80 0
 138 0022 0122     		movs	r2, #1
 139 0024 294B     		ldr	r3, .L23
 140 0026 1A70     		strb	r2, [r3]
  82:.\Generated_Source\PSoC5/ILO_Trim_1.c ****             
 141              		.loc 1 82 0
 142 0028 FFF7FEFF 		bl	ILO_Trim_1_ReadEdgeCount
 143              	.LVL10:
  84:.\Generated_Source\PSoC5/ILO_Trim_1.c ****         {
 144              		.loc 1 84 0
 145 002c 0146     		mov	r1, r0
 146 002e 30B1     		cbz	r0, .L20
  86:.\Generated_Source\PSoC5/ILO_Trim_1.c ****         }
 147              		.loc 1 86 0
ARM GAS  C:\Users\doug_000\AppData\Local\Temp\ccAb5D0z.s 			page 16


 148 0030 284B     		ldr	r3, .L23+8
 149 0032 B3FBF0F3 		udiv	r3, r3, r0
 150 0036 A3F57A73 		sub	r3, r3, #1000
 151 003a 9BB2     		uxth	r3, r3
 152              	.LVL11:
 153 003c 00E0     		b	.L12
 154              	.LVL12:
 155              	.L20:
  90:.\Generated_Source\PSoC5/ILO_Trim_1.c ****         }
 156              		.loc 1 90 0
 157 003e 0023     		movs	r3, #0
 158              	.L12:
 159              	.LVL13:
  95:.\Generated_Source\PSoC5/ILO_Trim_1.c ****                         | (uint8)((ILO_Trim_1_ILO_TR1_MASK & CY_GET_REG8(CYREG_ILO_TR1))
 160              		.loc 1 95 0
 161 0040 254A     		ldr	r2, .L23+12
 162 0042 1478     		ldrb	r4, [r2]	@ zero_extendqisi2
 163 0044 04F00F02 		and	r2, r4, #15
  96:.\Generated_Source\PSoC5/ILO_Trim_1.c ****                             << ILO_Trim_1_TRIM_SHIFT));
 164              		.loc 1 96 0
 165 0048 2448     		ldr	r0, .L23+16
 166              	.LVL14:
 167 004a 0478     		ldrb	r4, [r0]	@ zero_extendqisi2
 168 004c 04F00304 		and	r4, r4, #3
  95:.\Generated_Source\PSoC5/ILO_Trim_1.c ****                         | (uint8)((ILO_Trim_1_ILO_TR1_MASK & CY_GET_REG8(CYREG_ILO_TR1))
 169              		.loc 1 95 0
 170 0050 42EA0414 		orr	r4, r2, r4, lsl #4
 171              	.LVL15:
 106:.\Generated_Source\PSoC5/ILO_Trim_1.c ****         {
 172              		.loc 1 106 0
 173 0054 13F4004F 		tst	r3, #32768
 174 0058 02D0     		beq	.L13
 108:.\Generated_Source\PSoC5/ILO_Trim_1.c ****         }
 175              		.loc 1 108 0
 176 005a 5B42     		negs	r3, r3
 177              	.LVL16:
 178 005c 9BB2     		uxth	r3, r3
 179              	.LVL17:
 180 005e 00E0     		b	.L14
 181              	.LVL18:
 182              	.L13:
 112:.\Generated_Source\PSoC5/ILO_Trim_1.c ****         }
 183              		.loc 1 112 0
 184 0060 9BB2     		uxth	r3, r3
 185              	.LVL19:
 186              	.L14:
 115:.\Generated_Source\PSoC5/ILO_Trim_1.c ****         {
 187              		.loc 1 115 0
 188 0062 1A4A     		ldr	r2, .L23
 189 0064 5288     		ldrh	r2, [r2, #2]
 190 0066 9342     		cmp	r3, r2
 191 0068 13D9     		bls	.L15
 117:.\Generated_Source\PSoC5/ILO_Trim_1.c ****             {
 192              		.loc 1 117 0
 193 006a 642A     		cmp	r2, #100
 194 006c 06D8     		bhi	.L16
 120:.\Generated_Source\PSoC5/ILO_Trim_1.c ****         
ARM GAS  C:\Users\doug_000\AppData\Local\Temp\ccAb5D0z.s 			page 17


 195              		.loc 1 120 0
 196 006e 184B     		ldr	r3, .L23+4
 197              	.LVL20:
 198 0070 5C78     		ldrb	r4, [r3, #1]	@ zero_extendqisi2
 199              	.LVL21:
 123:.\Generated_Source\PSoC5/ILO_Trim_1.c ****             }
 200              		.loc 1 123 0
 201 0072 FFF7FEFF 		bl	ILO_Trim_1_CorrectionISR_Disable
 202              	.LVL22:
 138:.\Generated_Source\PSoC5/ILO_Trim_1.c ****         }
 203              		.loc 1 138 0
 204 0076 47F6FF73 		movw	r3, #32767
 205 007a 14E0     		b	.L17
 206              	.LVL23:
 207              	.L16:
 128:.\Generated_Source\PSoC5/ILO_Trim_1.c ****                 {
 208              		.loc 1 128 0
 209 007c 14F00F0F 		tst	r4, #15
 210 0080 03D0     		beq	.L18
 130:.\Generated_Source\PSoC5/ILO_Trim_1.c ****                 }
 211              		.loc 1 130 0
 212 0082 1034     		adds	r4, r4, #16
 213              	.LVL24:
 138:.\Generated_Source\PSoC5/ILO_Trim_1.c ****         }
 214              		.loc 1 138 0
 215 0084 47F6FF73 		movw	r3, #32767
 216              	.LVL25:
 217 0088 0DE0     		b	.L17
 218              	.LVL26:
 219              	.L18:
 134:.\Generated_Source\PSoC5/ILO_Trim_1.c ****                 }
 220              		.loc 1 134 0
 221 008a 0734     		adds	r4, r4, #7
 222              	.LVL27:
 138:.\Generated_Source\PSoC5/ILO_Trim_1.c ****         }
 223              		.loc 1 138 0
 224 008c 47F6FF73 		movw	r3, #32767
 225              	.LVL28:
 226 0090 09E0     		b	.L17
 227              	.LVL29:
 228              	.L15:
 143:.\Generated_Source\PSoC5/ILO_Trim_1.c ****     
 229              		.loc 1 143 0
 230 0092 0F4A     		ldr	r2, .L23+4
 231 0094 5470     		strb	r4, [r2, #1]
 145:.\Generated_Source\PSoC5/ILO_Trim_1.c ****             {
 232              		.loc 1 145 0
 233 0096 40F2DB52 		movw	r2, #1499
 234 009a 9142     		cmp	r1, r2
 235 009c 02D8     		bhi	.L19
 147:.\Generated_Source\PSoC5/ILO_Trim_1.c ****             }
 236              		.loc 1 147 0
 237 009e 013C     		subs	r4, r4, #1
 238              	.LVL30:
 239 00a0 E4B2     		uxtb	r4, r4
 240              	.LVL31:
 241 00a2 00E0     		b	.L17
ARM GAS  C:\Users\doug_000\AppData\Local\Temp\ccAb5D0z.s 			page 18


 242              	.L19:
 151:.\Generated_Source\PSoC5/ILO_Trim_1.c ****             }
 243              		.loc 1 151 0
 244 00a4 0134     		adds	r4, r4, #1
 245              	.LVL32:
 246              	.L17:
 156:.\Generated_Source\PSoC5/ILO_Trim_1.c ****                 (uint8)(CY_GET_REG8(CYREG_ILO_TR0) & ILO_Trim_1_FINE_TRIM_CLEAR)
 247              		.loc 1 156 0
 248 00a6 0C48     		ldr	r0, .L23+12
 249 00a8 0278     		ldrb	r2, [r0]	@ zero_extendqisi2
 250 00aa 02F0F001 		and	r1, r2, #240
 251 00ae 04F00F02 		and	r2, r4, #15
 252 00b2 0A43     		orrs	r2, r2, r1
 253 00b4 0270     		strb	r2, [r0]
 159:.\Generated_Source\PSoC5/ILO_Trim_1.c ****                 (uint8)(CY_GET_REG8(CYREG_ILO_TR1) & ILO_Trim_1_COARSE_TRIM_CLEAR)
 254              		.loc 1 159 0
 255 00b6 0949     		ldr	r1, .L23+16
 256 00b8 0A78     		ldrb	r2, [r1]	@ zero_extendqisi2
 257 00ba 02F0F802 		and	r2, r2, #248
 258 00be C4F30114 		ubfx	r4, r4, #4, #2
 259              	.LVL33:
 260 00c2 1443     		orrs	r4, r4, r2
 261 00c4 0C70     		strb	r4, [r1]
 172:.\Generated_Source\PSoC5/ILO_Trim_1.c ****     }
 262              		.loc 1 172 0
 263 00c6 014A     		ldr	r2, .L23
 264 00c8 5380     		strh	r3, [r2, #2]	@ movhi
 265 00ca 10BD     		pop	{r4, pc}
 266              	.L24:
 267              		.align	2
 268              	.L23:
 269 00cc 00000000 		.word	.LANCHOR0
 270 00d0 00000000 		.word	.LANCHOR1
 271 00d4 4EE61600 		.word	1500750
 272 00d8 90460040 		.word	1073759888
 273 00dc 91460040 		.word	1073759889
 274              		.cfi_endproc
 275              	.LFE0:
 276              		.size	ILO_Trim_1_CorrectionIteration, .-ILO_Trim_1_CorrectionIteration
 277              		.section	.text.ILO_Trim_1_CheckError,"ax",%progbits
 278              		.align	2
 279              		.global	ILO_Trim_1_CheckError
 280              		.thumb
 281              		.thumb_func
 282              		.type	ILO_Trim_1_CheckError, %function
 283              	ILO_Trim_1_CheckError:
 284              	.LFB2:
 258:.\Generated_Source\PSoC5/ILO_Trim_1.c **** 	uint16 edgeCount;
 285              		.loc 1 258 0
 286              		.cfi_startproc
 287              		@ args = 0, pretend = 0, frame = 0
 288              		@ frame_needed = 0, uses_anonymous_args = 0
 289 0000 08B5     		push	{r3, lr}
 290              		.cfi_def_cfa_offset 8
 291              		.cfi_offset 3, -8
 292              		.cfi_offset 14, -4
 262:.\Generated_Source\PSoC5/ILO_Trim_1.c **** 	
ARM GAS  C:\Users\doug_000\AppData\Local\Temp\ccAb5D0z.s 			page 19


 293              		.loc 1 262 0
 294 0002 FFF7FEFF 		bl	ILO_Trim_1_ReadEdgeCount
 295              	.LVL34:
 264:.\Generated_Source\PSoC5/ILO_Trim_1.c **** 	{
 296              		.loc 1 264 0
 297 0006 38B1     		cbz	r0, .L27
 298 0008 0346     		mov	r3, r0
 266:.\Generated_Source\PSoC5/ILO_Trim_1.c ****     }
 299              		.loc 1 266 0
 300 000a 0548     		ldr	r0, .L29
 301              	.LVL35:
 302 000c B0FBF3F0 		udiv	r0, r0, r3
 303 0010 A0F57A70 		sub	r0, r0, #1000
 304 0014 80B2     		uxth	r0, r0
 305              	.LVL36:
 306 0016 00E0     		b	.L26
 307              	.LVL37:
 308              	.L27:
 270:.\Generated_Source\PSoC5/ILO_Trim_1.c ****     }
 309              		.loc 1 270 0
 310 0018 0020     		movs	r0, #0
 311              	.LVL38:
 312              	.L26:
 274:.\Generated_Source\PSoC5/ILO_Trim_1.c **** 
 313              		.loc 1 274 0
 314 001a 00B2     		sxth	r0, r0
 315 001c 08BD     		pop	{r3, pc}
 316              	.L30:
 317 001e 00BF     		.align	2
 318              	.L29:
 319 0020 4EE61600 		.word	1500750
 320              		.cfi_endproc
 321              	.LFE2:
 322              		.size	ILO_Trim_1_CheckError, .-ILO_Trim_1_CheckError
 323              		.section	.text.ILO_Trim_1_CheckStatus,"ax",%progbits
 324              		.align	2
 325              		.global	ILO_Trim_1_CheckStatus
 326              		.thumb
 327              		.thumb_func
 328              		.type	ILO_Trim_1_CheckStatus, %function
 329              	ILO_Trim_1_CheckStatus:
 330              	.LFB1:
 202:.\Generated_Source\PSoC5/ILO_Trim_1.c **** 	uint16 errorAbs;
 331              		.loc 1 202 0
 332              		.cfi_startproc
 333              		@ args = 0, pretend = 0, frame = 0
 334              		@ frame_needed = 0, uses_anonymous_args = 0
 335 0000 10B5     		push	{r4, lr}
 336              		.cfi_def_cfa_offset 8
 337              		.cfi_offset 4, -8
 338              		.cfi_offset 14, -4
 339              	.LVL39:
 208:.\Generated_Source\PSoC5/ILO_Trim_1.c **** 	
 340              		.loc 1 208 0
 341 0002 FFF7FEFF 		bl	ILO_Trim_1_CorrectionISR_GetState
 342              	.LVL40:
 211:.\Generated_Source\PSoC5/ILO_Trim_1.c ****     {
ARM GAS  C:\Users\doug_000\AppData\Local\Temp\ccAb5D0z.s 			page 20


 343              		.loc 1 211 0
 344 0006 08B9     		cbnz	r0, .L36
 206:.\Generated_Source\PSoC5/ILO_Trim_1.c **** 
 345              		.loc 1 206 0
 346 0008 0024     		movs	r4, #0
 347 000a 00E0     		b	.L32
 348              	.L36:
 213:.\Generated_Source\PSoC5/ILO_Trim_1.c **** 	}
 349              		.loc 1 213 0
 350 000c 0224     		movs	r4, #2
 351              	.L32:
 352              	.LVL41:
 216:.\Generated_Source\PSoC5/ILO_Trim_1.c ****     
 353              		.loc 1 216 0
 354 000e FFF7FEFF 		bl	ILO_Trim_1_CheckError
 355              	.LVL42:
 218:.\Generated_Source\PSoC5/ILO_Trim_1.c ****     {
 356              		.loc 1 218 0
 357 0012 0028     		cmp	r0, #0
 358              	.LVL43:
 359 0014 03DA     		bge	.L33
 220:.\Generated_Source\PSoC5/ILO_Trim_1.c ****     }
 360              		.loc 1 220 0
 361 0016 80B2     		uxth	r0, r0
 362 0018 4042     		negs	r0, r0
 363 001a 80B2     		uxth	r0, r0
 364              	.LVL44:
 365 001c 00E0     		b	.L34
 366              	.LVL45:
 367              	.L33:
 224:.\Generated_Source\PSoC5/ILO_Trim_1.c ****     }
 368              		.loc 1 224 0
 369 001e 80B2     		uxth	r0, r0
 370              	.LVL46:
 371              	.L34:
 227:.\Generated_Source\PSoC5/ILO_Trim_1.c **** 	{
 372              		.loc 1 227 0
 373 0020 6428     		cmp	r0, #100
 374 0022 01D8     		bhi	.L35
 229:.\Generated_Source\PSoC5/ILO_Trim_1.c **** 	}
 375              		.loc 1 229 0
 376 0024 44F00104 		orr	r4, r4, #1
 377              	.LVL47:
 378              	.L35:
 233:.\Generated_Source\PSoC5/ILO_Trim_1.c **** 
 379              		.loc 1 233 0
 380 0028 2046     		mov	r0, r4
 381              	.LVL48:
 382 002a 10BD     		pop	{r4, pc}
 383              		.cfi_endproc
 384              	.LFE1:
 385              		.size	ILO_Trim_1_CheckStatus, .-ILO_Trim_1_CheckStatus
 386              		.section	.text.ILO_Trim_1_Compensate,"ax",%progbits
 387              		.align	2
 388              		.global	ILO_Trim_1_Compensate
 389              		.thumb
 390              		.thumb_func
ARM GAS  C:\Users\doug_000\AppData\Local\Temp\ccAb5D0z.s 			page 21


 391              		.type	ILO_Trim_1_Compensate, %function
 392              	ILO_Trim_1_Compensate:
 393              	.LFB3:
 297:.\Generated_Source\PSoC5/ILO_Trim_1.c **** 	uint32 timeDesired, ILOActual, clocksActual;
 394              		.loc 1 297 0
 395              		.cfi_startproc
 396              		@ args = 0, pretend = 0, frame = 0
 397              		@ frame_needed = 0, uses_anonymous_args = 0
 398              	.LVL49:
 399 0000 10B5     		push	{r4, lr}
 400              		.cfi_def_cfa_offset 8
 401              		.cfi_offset 4, -8
 402              		.cfi_offset 14, -4
 303:.\Generated_Source\PSoC5/ILO_Trim_1.c **** 	
 403              		.loc 1 303 0
 404 0002 42F21074 		movw	r4, #10000
 405 0006 04FB00F4 		mul	r4, r4, r0
 406              	.LVL50:
 306:.\Generated_Source\PSoC5/ILO_Trim_1.c **** 	if(edgeCount != ILO_Trim_1_COUNT_ZERO)
 407              		.loc 1 306 0
 408 000a FFF7FEFF 		bl	ILO_Trim_1_ReadEdgeCount
 409              	.LVL51:
 307:.\Generated_Source\PSoC5/ILO_Trim_1.c **** 	{
 410              		.loc 1 307 0
 411 000e 28B1     		cbz	r0, .L41
 310:.\Generated_Source\PSoC5/ILO_Trim_1.c ****     }
 412              		.loc 1 310 0
 413 0010 0D4B     		ldr	r3, .L44
 414 0012 B3FBF0F3 		udiv	r3, r3, r0
 415 0016 643B     		subs	r3, r3, #100
 416 0018 9BB2     		uxth	r3, r3
 417              	.LVL52:
 418 001a 00E0     		b	.L39
 419              	.LVL53:
 420              	.L41:
 314:.\Generated_Source\PSoC5/ILO_Trim_1.c ****     }
 421              		.loc 1 314 0
 422 001c 0023     		movs	r3, #0
 423              	.L39:
 424              	.LVL54:
 318:.\Generated_Source\PSoC5/ILO_Trim_1.c **** 	
 425              		.loc 1 318 0
 426 001e 1BB2     		sxth	r3, r3
 317:.\Generated_Source\PSoC5/ILO_Trim_1.c ****                 + ((uint32)ILO_Trim_1_ILO_FREQUENCY * (uint32)error);
 427              		.loc 1 317 0
 428 0020 03F16402 		add	r2, r3, #100
 429              	.LVL55:
 321:.\Generated_Source\PSoC5/ILO_Trim_1.c **** 	
 430              		.loc 1 321 0
 431 0024 094B     		ldr	r3, .L44+4
 432              	.LVL56:
 433 0026 A3FB0413 		umull	r1, r3, r3, r4
 434 002a 5B09     		lsrs	r3, r3, #5
 435 002c 02FB03F3 		mul	r3, r2, r3
 436              	.LVL57:
 323:.\Generated_Source\PSoC5/ILO_Trim_1.c **** 	{
 437              		.loc 1 323 0
ARM GAS  C:\Users\doug_000\AppData\Local\Temp\ccAb5D0z.s 			page 22


 438 0030 074A     		ldr	r2, .L44+8
 439              	.LVL58:
 440 0032 9342     		cmp	r3, r2
 441 0034 05D8     		bhi	.L42
 329:.\Generated_Source\PSoC5/ILO_Trim_1.c **** 	}
 442              		.loc 1 329 0
 443 0036 0748     		ldr	r0, .L44+12
 444              	.LVL59:
 445 0038 A0FB0330 		umull	r3, r0, r0, r3
 446              	.LVL60:
 447 003c C0F34F30 		ubfx	r0, r0, #13, #16
 448              	.LVL61:
 449 0040 10BD     		pop	{r4, pc}
 450              	.LVL62:
 451              	.L42:
 325:.\Generated_Source\PSoC5/ILO_Trim_1.c **** 	}
 452              		.loc 1 325 0
 453 0042 4FF6FF70 		movw	r0, #65535
 454              	.LVL63:
 333:.\Generated_Source\PSoC5/ILO_Trim_1.c **** 
 455              		.loc 1 333 0
 456 0046 10BD     		pop	{r4, pc}
 457              	.LVL64:
 458              	.L45:
 459              		.align	2
 460              	.L44:
 461 0048 DE4C0200 		.word	150750
 462 004c 1F85EB51 		.word	1374389535
 463 0050 FFFF0F27 		.word	655359999
 464 0054 5917B7D1 		.word	-776530087
 465              		.cfi_endproc
 466              	.LFE3:
 467              		.size	ILO_Trim_1_Compensate, .-ILO_Trim_1_Compensate
 468              		.section	.text.ILO_Trim_1_Start,"ax",%progbits
 469              		.align	2
 470              		.global	ILO_Trim_1_Start
 471              		.thumb
 472              		.thumb_func
 473              		.type	ILO_Trim_1_Start, %function
 474              	ILO_Trim_1_Start:
 475              	.LFB4:
 354:.\Generated_Source\PSoC5/ILO_Trim_1.c ****     #if (!CY_PSOC4)
 476              		.loc 1 354 0
 477              		.cfi_startproc
 478              		@ args = 0, pretend = 0, frame = 0
 479              		@ frame_needed = 0, uses_anonymous_args = 0
 480 0000 08B5     		push	{r3, lr}
 481              		.cfi_def_cfa_offset 8
 482              		.cfi_offset 3, -8
 483              		.cfi_offset 14, -4
 356:.\Generated_Source\PSoC5/ILO_Trim_1.c ****     #endif /* Only available for PSoC 3 and PSoC 5LP */
 484              		.loc 1 356 0
 485 0002 1D48     		ldr	r0, .L48
 486 0004 FFF7FEFF 		bl	ILO_Trim_1_CorrectionISR_StartEx
 487              	.LVL65:
 359:.\Generated_Source\PSoC5/ILO_Trim_1.c **** 	
 488              		.loc 1 359 0
ARM GAS  C:\Users\doug_000\AppData\Local\Temp\ccAb5D0z.s 			page 23


 489 0008 FFF7FEFF 		bl	ILO_Trim_1_CorrectionISR_Disable
 490              	.LVL66:
 365:.\Generated_Source\PSoC5/ILO_Trim_1.c ****                         |(uint8)((ILO_Trim_1_ILO_TR1_MASK & CY_GET_REG8(CYREG_ILO_TR1))
 491              		.loc 1 365 0
 492 000c 1B4B     		ldr	r3, .L48+4
 493 000e 1B78     		ldrb	r3, [r3]	@ zero_extendqisi2
 366:.\Generated_Source\PSoC5/ILO_Trim_1.c ****                             << ILO_Trim_1_TRIM_SHIFT));
 494              		.loc 1 366 0
 495 0010 1B4A     		ldr	r2, .L48+8
 496 0012 1278     		ldrb	r2, [r2]	@ zero_extendqisi2
 497 0014 02F00302 		and	r2, r2, #3
 365:.\Generated_Source\PSoC5/ILO_Trim_1.c ****                         |(uint8)((ILO_Trim_1_ILO_TR1_MASK & CY_GET_REG8(CYREG_ILO_TR1))
 498              		.loc 1 365 0
 499 0018 03F00F03 		and	r3, r3, #15
 500 001c 43EA0213 		orr	r3, r3, r2, lsl #4
 501 0020 184A     		ldr	r2, .L48+12
 502 0022 9370     		strb	r3, [r2, #2]
 388:.\Generated_Source\PSoC5/ILO_Trim_1.c **** 			
 503              		.loc 1 388 0
 504 0024 184B     		ldr	r3, .L48+16
 505 0026 1A78     		ldrb	r2, [r3]	@ zero_extendqisi2
 506 0028 02F00102 		and	r2, r2, #1
 507 002c 1A70     		strb	r2, [r3]
 391:.\Generated_Source\PSoC5/ILO_Trim_1.c **** 
 508              		.loc 1 391 0
 509 002e 1749     		ldr	r1, .L48+20
 510 0030 0A78     		ldrb	r2, [r1]	@ zero_extendqisi2
 511 0032 02F0FC02 		and	r2, r2, #252
 512 0036 0A70     		strb	r2, [r1]
 394:.\Generated_Source\PSoC5/ILO_Trim_1.c **** 	        ILO_Trim_1_RT1_REG |= ILO_Trim_1_SYNCDSI_EN;
 513              		.loc 1 394 0
 514 0038 154A     		ldr	r2, .L48+24
 515 003a 1178     		ldrb	r1, [r2]	@ zero_extendqisi2
 516 003c 01F0F001 		and	r1, r1, #240
 517 0040 1170     		strb	r1, [r2]
 395:.\Generated_Source\PSoC5/ILO_Trim_1.c **** 		
 518              		.loc 1 395 0
 519 0042 1178     		ldrb	r1, [r2]	@ zero_extendqisi2
 520 0044 41F00F01 		orr	r1, r1, #15
 521 0048 1170     		strb	r1, [r2]
 398:.\Generated_Source\PSoC5/ILO_Trim_1.c **** 			CY_SET_REG16(ILO_Trim_1_COUNTER_LSB_PTR, ILO_Trim_1_INIT_PERIOD);
 522              		.loc 1 398 0
 523 004a 4FF6FF72 		movw	r2, #65535
 524 004e 1149     		ldr	r1, .L48+28
 525 0050 0A80     		strh	r2, [r1]	@ movhi
 399:.\Generated_Source\PSoC5/ILO_Trim_1.c **** 			
 526              		.loc 1 399 0
 527 0052 0231     		adds	r1, r1, #2
 528 0054 0A80     		strh	r2, [r1]	@ movhi
 401:.\Generated_Source\PSoC5/ILO_Trim_1.c **** 	        ILO_Trim_1_GLOBAL_STBY_ENABLE |= ILO_Trim_1_BLOCK_STBY_EN_MASK;
 529              		.loc 1 401 0
 530 0056 A1F66331 		subw	r1, r1, #2915
 531 005a 0A78     		ldrb	r2, [r1]	@ zero_extendqisi2
 532 005c 42F00102 		orr	r2, r2, #1
 533 0060 0A70     		strb	r2, [r1]
 402:.\Generated_Source\PSoC5/ILO_Trim_1.c **** 
 534              		.loc 1 402 0
ARM GAS  C:\Users\doug_000\AppData\Local\Temp\ccAb5D0z.s 			page 24


 535 0062 1031     		adds	r1, r1, #16
 536 0064 0A78     		ldrb	r2, [r1]	@ zero_extendqisi2
 537 0066 42F00102 		orr	r2, r2, #1
 538 006a 0A70     		strb	r2, [r1]
 404:.\Generated_Source\PSoC5/ILO_Trim_1.c **** 		#endif /* End of PSoC 3 and PSoC 5LP code */
 539              		.loc 1 404 0
 540 006c 1A78     		ldrb	r2, [r3]	@ zero_extendqisi2
 541 006e 42F00102 		orr	r2, r2, #1
 542 0072 1A70     		strb	r2, [r3]
 543 0074 08BD     		pop	{r3, pc}
 544              	.L49:
 545 0076 00BF     		.align	2
 546              	.L48:
 547 0078 00000000 		.word	ILO_Trim_1_CorrectionIteration
 548 007c 90460040 		.word	1073759888
 549 0080 91460040 		.word	1073759889
 550 0084 00000000 		.word	.LANCHOR1
 551 0088 004F0040 		.word	1073762048
 552 008c 024F0040 		.word	1073762050
 553 0090 0B4F0040 		.word	1073762059
 554 0094 044F0040 		.word	1073762052
 555              		.cfi_endproc
 556              	.LFE4:
 557              		.size	ILO_Trim_1_Start, .-ILO_Trim_1_Start
 558              		.section	.text.ILO_Trim_1_Stop,"ax",%progbits
 559              		.align	2
 560              		.global	ILO_Trim_1_Stop
 561              		.thumb
 562              		.thumb_func
 563              		.type	ILO_Trim_1_Stop, %function
 564              	ILO_Trim_1_Stop:
 565              	.LFB5:
 428:.\Generated_Source\PSoC5/ILO_Trim_1.c **** 	ILO_Trim_1_CorrectionISR_Disable();
 566              		.loc 1 428 0
 567              		.cfi_startproc
 568              		@ args = 0, pretend = 0, frame = 0
 569              		@ frame_needed = 0, uses_anonymous_args = 0
 570 0000 08B5     		push	{r3, lr}
 571              		.cfi_def_cfa_offset 8
 572              		.cfi_offset 3, -8
 573              		.cfi_offset 14, -4
 429:.\Generated_Source\PSoC5/ILO_Trim_1.c **** 	ILO_Trim_1_CorrectionISR_ClearPending();
 574              		.loc 1 429 0
 575 0002 FFF7FEFF 		bl	ILO_Trim_1_CorrectionISR_Disable
 576              	.LVL67:
 430:.\Generated_Source\PSoC5/ILO_Trim_1.c **** 	
 577              		.loc 1 430 0
 578 0006 FFF7FEFF 		bl	ILO_Trim_1_CorrectionISR_ClearPending
 579              	.LVL68:
 440:.\Generated_Source\PSoC5/ILO_Trim_1.c **** 			
 580              		.loc 1 440 0
 581 000a 084A     		ldr	r2, .L52
 582 000c 1378     		ldrb	r3, [r2]	@ zero_extendqisi2
 583 000e 03F0FE03 		and	r3, r3, #254
 584 0012 1370     		strb	r3, [r2]
 442:.\Generated_Source\PSoC5/ILO_Trim_1.c **** 	        ILO_Trim_1_GLOBAL_STBY_ENABLE &= ((uint8)(~ILO_Trim_1_BLOCK_STBY_EN_MASK));
 585              		.loc 1 442 0
ARM GAS  C:\Users\doug_000\AppData\Local\Temp\ccAb5D0z.s 			page 25


 586 0014 A2F65D32 		subw	r2, r2, #2909
 587 0018 1378     		ldrb	r3, [r2]	@ zero_extendqisi2
 588 001a 03F0FE03 		and	r3, r3, #254
 589 001e 1370     		strb	r3, [r2]
 443:.\Generated_Source\PSoC5/ILO_Trim_1.c **** 		#endif /* End of PSoC 3 and PSoC 5LP code */
 590              		.loc 1 443 0
 591 0020 1032     		adds	r2, r2, #16
 592 0022 1378     		ldrb	r3, [r2]	@ zero_extendqisi2
 593 0024 03F0FE03 		and	r3, r3, #254
 594 0028 1370     		strb	r3, [r2]
 595 002a 08BD     		pop	{r3, pc}
 596              	.L53:
 597              		.align	2
 598              	.L52:
 599 002c 004F0040 		.word	1073762048
 600              		.cfi_endproc
 601              	.LFE5:
 602              		.size	ILO_Trim_1_Stop, .-ILO_Trim_1_Stop
 603              		.section	.text.ILO_Trim_1_BeginTrimming,"ax",%progbits
 604              		.align	2
 605              		.global	ILO_Trim_1_BeginTrimming
 606              		.thumb
 607              		.thumb_func
 608              		.type	ILO_Trim_1_BeginTrimming, %function
 609              	ILO_Trim_1_BeginTrimming:
 610              	.LFB6:
 470:.\Generated_Source\PSoC5/ILO_Trim_1.c ****     uint8 isrOn;
 611              		.loc 1 470 0
 612              		.cfi_startproc
 613              		@ args = 0, pretend = 0, frame = 0
 614              		@ frame_needed = 0, uses_anonymous_args = 0
 615 0000 08B5     		push	{r3, lr}
 616              		.cfi_def_cfa_offset 8
 617              		.cfi_offset 3, -8
 618              		.cfi_offset 14, -4
 473:.\Generated_Source\PSoC5/ILO_Trim_1.c ****     if(isrOn == ILO_Trim_1_ISR_OFF)
 619              		.loc 1 473 0
 620 0002 FFF7FEFF 		bl	ILO_Trim_1_CorrectionISR_GetState
 621              	.LVL69:
 474:.\Generated_Source\PSoC5/ILO_Trim_1.c ****     {
 622              		.loc 1 474 0
 623 0006 08B9     		cbnz	r0, .L54
 476:.\Generated_Source\PSoC5/ILO_Trim_1.c ****     }
 624              		.loc 1 476 0
 625 0008 FFF7FEFF 		bl	ILO_Trim_1_CorrectionISR_Enable
 626              	.LVL70:
 627              	.L54:
 628 000c 08BD     		pop	{r3, pc}
 629              		.cfi_endproc
 630              	.LFE6:
 631              		.size	ILO_Trim_1_BeginTrimming, .-ILO_Trim_1_BeginTrimming
 632 000e 00BF     		.section	.text.ILO_Trim_1_StopTrimming,"ax",%progbits
 633              		.align	2
 634              		.global	ILO_Trim_1_StopTrimming
 635              		.thumb
 636              		.thumb_func
 637              		.type	ILO_Trim_1_StopTrimming, %function
ARM GAS  C:\Users\doug_000\AppData\Local\Temp\ccAb5D0z.s 			page 26


 638              	ILO_Trim_1_StopTrimming:
 639              	.LFB7:
 500:.\Generated_Source\PSoC5/ILO_Trim_1.c ****     uint8 isrOn;
 640              		.loc 1 500 0
 641              		.cfi_startproc
 642              		@ args = 0, pretend = 0, frame = 0
 643              		@ frame_needed = 0, uses_anonymous_args = 0
 644 0000 08B5     		push	{r3, lr}
 645              		.cfi_def_cfa_offset 8
 646              		.cfi_offset 3, -8
 647              		.cfi_offset 14, -4
 503:.\Generated_Source\PSoC5/ILO_Trim_1.c ****     if(isrOn != ILO_Trim_1_ISR_OFF)
 648              		.loc 1 503 0
 649 0002 FFF7FEFF 		bl	ILO_Trim_1_CorrectionISR_GetState
 650              	.LVL71:
 504:.\Generated_Source\PSoC5/ILO_Trim_1.c ****     {
 651              		.loc 1 504 0
 652 0006 18B1     		cbz	r0, .L57
 506:.\Generated_Source\PSoC5/ILO_Trim_1.c ****         ILO_Trim_1_CorrectionISR_ClearPending();
 653              		.loc 1 506 0
 654 0008 FFF7FEFF 		bl	ILO_Trim_1_CorrectionISR_Disable
 655              	.LVL72:
 507:.\Generated_Source\PSoC5/ILO_Trim_1.c ****     }
 656              		.loc 1 507 0
 657 000c FFF7FEFF 		bl	ILO_Trim_1_CorrectionISR_ClearPending
 658              	.LVL73:
 659              	.L57:
 660 0010 08BD     		pop	{r3, pc}
 661              		.cfi_endproc
 662              	.LFE7:
 663              		.size	ILO_Trim_1_StopTrimming, .-ILO_Trim_1_StopTrimming
 664 0012 00BF     		.section	.text.ILO_Trim_1_RestoreTrim,"ax",%progbits
 665              		.align	2
 666              		.global	ILO_Trim_1_RestoreTrim
 667              		.thumb
 668              		.thumb_func
 669              		.type	ILO_Trim_1_RestoreTrim, %function
 670              	ILO_Trim_1_RestoreTrim:
 671              	.LFB8:
 530:.\Generated_Source\PSoC5/ILO_Trim_1.c **** 	ILO_Trim_1_CorrectionISR_ClearPending();
 672              		.loc 1 530 0
 673              		.cfi_startproc
 674              		@ args = 0, pretend = 0, frame = 0
 675              		@ frame_needed = 0, uses_anonymous_args = 0
 676 0000 08B5     		push	{r3, lr}
 677              		.cfi_def_cfa_offset 8
 678              		.cfi_offset 3, -8
 679              		.cfi_offset 14, -4
 531:.\Generated_Source\PSoC5/ILO_Trim_1.c **** 	ILO_Trim_1_CorrectionISR_Disable();
 680              		.loc 1 531 0
 681 0002 FFF7FEFF 		bl	ILO_Trim_1_CorrectionISR_ClearPending
 682              	.LVL74:
 532:.\Generated_Source\PSoC5/ILO_Trim_1.c **** 	
 683              		.loc 1 532 0
 684 0006 FFF7FEFF 		bl	ILO_Trim_1_CorrectionISR_Disable
 685              	.LVL75:
 535:.\Generated_Source\PSoC5/ILO_Trim_1.c ****             (uint8)(CY_GET_REG8(CYREG_ILO_TR0) & ILO_Trim_1_FINE_TRIM_CLEAR)
ARM GAS  C:\Users\doug_000\AppData\Local\Temp\ccAb5D0z.s 			page 27


 686              		.loc 1 535 0
 687 000a 0A49     		ldr	r1, .L62
 688 000c 0B78     		ldrb	r3, [r1]	@ zero_extendqisi2
 689 000e 03F0F002 		and	r2, r3, #240
 690 0012 0948     		ldr	r0, .L62+4
 691 0014 8378     		ldrb	r3, [r0, #2]	@ zero_extendqisi2
 692 0016 03F00F03 		and	r3, r3, #15
 693 001a 1343     		orrs	r3, r3, r2
 694 001c 0B70     		strb	r3, [r1]
 538:.\Generated_Source\PSoC5/ILO_Trim_1.c ****             (uint8)(CY_GET_REG8(CYREG_ILO_TR1) & ILO_Trim_1_COARSE_TRIM_CLEAR)
 695              		.loc 1 538 0
 696 001e 0131     		adds	r1, r1, #1
 697 0020 0A78     		ldrb	r2, [r1]	@ zero_extendqisi2
 698 0022 8378     		ldrb	r3, [r0, #2]	@ zero_extendqisi2
 699 0024 02F0F802 		and	r2, r2, #248
 700 0028 C3F30113 		ubfx	r3, r3, #4, #2
 701 002c 1343     		orrs	r3, r3, r2
 702 002e 0B70     		strb	r3, [r1]
 703 0030 08BD     		pop	{r3, pc}
 704              	.L63:
 705 0032 00BF     		.align	2
 706              	.L62:
 707 0034 90460040 		.word	1073759888
 708 0038 00000000 		.word	.LANCHOR1
 709              		.cfi_endproc
 710              	.LFE8:
 711              		.size	ILO_Trim_1_RestoreTrim, .-ILO_Trim_1_RestoreTrim
 712              		.section	.text.ILO_Trim_1_GetTrim,"ax",%progbits
 713              		.align	2
 714              		.global	ILO_Trim_1_GetTrim
 715              		.thumb
 716              		.thumb_func
 717              		.type	ILO_Trim_1_GetTrim, %function
 718              	ILO_Trim_1_GetTrim:
 719              	.LFB9:
 570:.\Generated_Source\PSoC5/ILO_Trim_1.c **** 	uint8 trimVal;
 720              		.loc 1 570 0
 721              		.cfi_startproc
 722              		@ args = 0, pretend = 0, frame = 0
 723              		@ frame_needed = 0, uses_anonymous_args = 0
 724              		@ link register save eliminated.
 575:.\Generated_Source\PSoC5/ILO_Trim_1.c ****                     | (uint8)((uint8)(ILO_Trim_1_ILO_TR1_MASK & CY_GET_REG8(CYREG_ILO_TR1)) 
 725              		.loc 1 575 0
 726 0000 054B     		ldr	r3, .L65
 727 0002 1B78     		ldrb	r3, [r3]	@ zero_extendqisi2
 728 0004 03F00F03 		and	r3, r3, #15
 576:.\Generated_Source\PSoC5/ILO_Trim_1.c ****                     << ILO_Trim_1_TRIM_SHIFT));
 729              		.loc 1 576 0
 730 0008 044A     		ldr	r2, .L65+4
 731 000a 1078     		ldrb	r0, [r2]	@ zero_extendqisi2
 732 000c 00F00300 		and	r0, r0, #3
 733              	.LVL76:
 587:.\Generated_Source\PSoC5/ILO_Trim_1.c **** 
 734              		.loc 1 587 0
 735 0010 43EA0010 		orr	r0, r3, r0, lsl #4
 736              	.LVL77:
 737 0014 7047     		bx	lr
ARM GAS  C:\Users\doug_000\AppData\Local\Temp\ccAb5D0z.s 			page 28


 738              	.L66:
 739 0016 00BF     		.align	2
 740              	.L65:
 741 0018 90460040 		.word	1073759888
 742 001c 91460040 		.word	1073759889
 743              		.cfi_endproc
 744              	.LFE9:
 745              		.size	ILO_Trim_1_GetTrim, .-ILO_Trim_1_GetTrim
 746              		.section	.text.ILO_Trim_1_SetTrim,"ax",%progbits
 747              		.align	2
 748              		.global	ILO_Trim_1_SetTrim
 749              		.thumb
 750              		.thumb_func
 751              		.type	ILO_Trim_1_SetTrim, %function
 752              	ILO_Trim_1_SetTrim:
 753              	.LFB10:
 608:.\Generated_Source\PSoC5/ILO_Trim_1.c ****     #if (ILO_Trim_1_ILO_FREQUENCY == ILO_Trim_1_1kHz)
 754              		.loc 1 608 0
 755              		.cfi_startproc
 756              		@ args = 0, pretend = 0, frame = 0
 757              		@ frame_needed = 0, uses_anonymous_args = 0
 758              		@ link register save eliminated.
 759              	.LVL78:
 610:.\Generated_Source\PSoC5/ILO_Trim_1.c ****             (uint8)(CY_GET_REG8(CYREG_ILO_TR0) & ILO_Trim_1_FINE_TRIM_CLEAR)
 760              		.loc 1 610 0
 761 0000 0849     		ldr	r1, .L68
 762 0002 0B78     		ldrb	r3, [r1]	@ zero_extendqisi2
 763 0004 03F0F002 		and	r2, r3, #240
 764 0008 00F00F03 		and	r3, r0, #15
 765 000c 1343     		orrs	r3, r3, r2
 766 000e 0B70     		strb	r3, [r1]
 613:.\Generated_Source\PSoC5/ILO_Trim_1.c ****             (uint8)(CY_GET_REG8(CYREG_ILO_TR1) & ILO_Trim_1_COARSE_TRIM_CLEAR)
 767              		.loc 1 613 0
 768 0010 054A     		ldr	r2, .L68+4
 769 0012 1378     		ldrb	r3, [r2]	@ zero_extendqisi2
 770 0014 03F0F803 		and	r3, r3, #248
 771 0018 C0F30110 		ubfx	r0, r0, #4, #2
 772              	.LVL79:
 773 001c 1843     		orrs	r0, r0, r3
 774 001e 1070     		strb	r0, [r2]
 775 0020 7047     		bx	lr
 776              	.L69:
 777 0022 00BF     		.align	2
 778              	.L68:
 779 0024 90460040 		.word	1073759888
 780 0028 91460040 		.word	1073759889
 781              		.cfi_endproc
 782              	.LFE10:
 783              		.size	ILO_Trim_1_SetTrim, .-ILO_Trim_1_SetTrim
 784              		.data
 785              		.align	1
 786              		.set	.LANCHOR0,. + 0
 787              		.type	iteration.4215, %object
 788              		.size	iteration.4215, 1
 789              	iteration.4215:
 790 0000 01       		.byte	1
 791 0001 00       		.space	1
ARM GAS  C:\Users\doug_000\AppData\Local\Temp\ccAb5D0z.s 			page 29


 792              		.type	errorOld.4212, %object
 793              		.size	errorOld.4212, 2
 794              	errorOld.4212:
 795 0002 FF7F     		.short	32767
 796              		.bss
 797              		.set	.LANCHOR1,. + 0
 798              		.type	startDelay.4214, %object
 799              		.size	startDelay.4214, 1
 800              	startDelay.4214:
 801 0000 00       		.space	1
 802              		.type	trimOld.4213, %object
 803              		.size	trimOld.4213, 1
 804              	trimOld.4213:
 805 0001 00       		.space	1
 806              		.type	trimFactory, %object
 807              		.size	trimFactory, 1
 808              	trimFactory:
 809 0002 00       		.space	1
 810              		.text
 811              	.Letext0:
 812              		.file 2 "Generated_Source\\PSoC5/cytypes.h"
 813              		.file 3 "Generated_Source\\PSoC5/ILO_Trim_1_CorrectionISR.h"