ARM GAS  C:\Users\doug_000\AppData\Local\Temp\ccqSZkzZ.s 			page 1


   1              		.syntax unified
   2              		.cpu cortex-m3
   3              		.fpu softvfp
   4              		.eabi_attribute 20, 1
   5              		.eabi_attribute 21, 1
   6              		.eabi_attribute 23, 3
   7              		.eabi_attribute 24, 1
   8              		.eabi_attribute 25, 1
   9              		.eabi_attribute 26, 1
  10              		.eabi_attribute 30, 1
  11              		.eabi_attribute 34, 1
  12              		.eabi_attribute 18, 4
  13              		.thumb
  14              		.file	"Status_Reg_1.c"
  15              		.text
  16              	.Ltext0:
  17              		.cfi_sections	.debug_frame
  18              		.section	.text.Status_Reg_1_Read,"ax",%progbits
  19              		.align	2
  20              		.global	Status_Reg_1_Read
  21              		.thumb
  22              		.thumb_func
  23              		.type	Status_Reg_1_Read, %function
  24              	Status_Reg_1_Read:
  25              	.LFB0:
  26              		.file 1 ".\\Generated_Source\\PSoC5\\Status_Reg_1.c"
   1:.\Generated_Source\PSoC5/Status_Reg_1.c **** /*******************************************************************************
   2:.\Generated_Source\PSoC5/Status_Reg_1.c **** * File Name: Status_Reg_1.c  
   3:.\Generated_Source\PSoC5/Status_Reg_1.c **** * Version 1.90
   4:.\Generated_Source\PSoC5/Status_Reg_1.c **** *
   5:.\Generated_Source\PSoC5/Status_Reg_1.c **** * Description:
   6:.\Generated_Source\PSoC5/Status_Reg_1.c **** *  This file contains API to enable firmware to read the value of a Status 
   7:.\Generated_Source\PSoC5/Status_Reg_1.c **** *  Register.
   8:.\Generated_Source\PSoC5/Status_Reg_1.c **** *
   9:.\Generated_Source\PSoC5/Status_Reg_1.c **** * Note:
  10:.\Generated_Source\PSoC5/Status_Reg_1.c **** *
  11:.\Generated_Source\PSoC5/Status_Reg_1.c **** ********************************************************************************
  12:.\Generated_Source\PSoC5/Status_Reg_1.c **** * Copyright 2008-2015, Cypress Semiconductor Corporation.  All rights reserved.
  13:.\Generated_Source\PSoC5/Status_Reg_1.c **** * You may use this file only in accordance with the license, terms, conditions, 
  14:.\Generated_Source\PSoC5/Status_Reg_1.c **** * disclaimers, and limitations in the end user license agreement accompanying 
  15:.\Generated_Source\PSoC5/Status_Reg_1.c **** * the software package with which this file was provided.
  16:.\Generated_Source\PSoC5/Status_Reg_1.c **** *******************************************************************************/
  17:.\Generated_Source\PSoC5/Status_Reg_1.c **** 
  18:.\Generated_Source\PSoC5/Status_Reg_1.c **** #include "Status_Reg_1.h"
  19:.\Generated_Source\PSoC5/Status_Reg_1.c **** 
  20:.\Generated_Source\PSoC5/Status_Reg_1.c **** #if !defined(Status_Reg_1_sts_sts_reg__REMOVED) /* Check for removal by optimization */
  21:.\Generated_Source\PSoC5/Status_Reg_1.c **** 
  22:.\Generated_Source\PSoC5/Status_Reg_1.c **** 
  23:.\Generated_Source\PSoC5/Status_Reg_1.c **** /*******************************************************************************
  24:.\Generated_Source\PSoC5/Status_Reg_1.c **** * Function Name: Status_Reg_1_Read
  25:.\Generated_Source\PSoC5/Status_Reg_1.c **** ********************************************************************************
  26:.\Generated_Source\PSoC5/Status_Reg_1.c **** *
  27:.\Generated_Source\PSoC5/Status_Reg_1.c **** * Summary:
  28:.\Generated_Source\PSoC5/Status_Reg_1.c **** *  Reads the current value assigned to the Status Register.
  29:.\Generated_Source\PSoC5/Status_Reg_1.c **** *
  30:.\Generated_Source\PSoC5/Status_Reg_1.c **** * Parameters:
  31:.\Generated_Source\PSoC5/Status_Reg_1.c **** *  None.
ARM GAS  C:\Users\doug_000\AppData\Local\Temp\ccqSZkzZ.s 			page 2


  32:.\Generated_Source\PSoC5/Status_Reg_1.c **** *
  33:.\Generated_Source\PSoC5/Status_Reg_1.c **** * Return:
  34:.\Generated_Source\PSoC5/Status_Reg_1.c **** *  The current value in the Status Register.
  35:.\Generated_Source\PSoC5/Status_Reg_1.c **** *
  36:.\Generated_Source\PSoC5/Status_Reg_1.c **** *******************************************************************************/
  37:.\Generated_Source\PSoC5/Status_Reg_1.c **** uint8 Status_Reg_1_Read(void) 
  38:.\Generated_Source\PSoC5/Status_Reg_1.c **** { 
  27              		.loc 1 38 0
  28              		.cfi_startproc
  29              		@ args = 0, pretend = 0, frame = 0
  30              		@ frame_needed = 0, uses_anonymous_args = 0
  31              		@ link register save eliminated.
  39:.\Generated_Source\PSoC5/Status_Reg_1.c ****     return Status_Reg_1_Status;
  32              		.loc 1 39 0
  33 0000 014B     		ldr	r3, .L2
  34 0002 1878     		ldrb	r0, [r3]	@ zero_extendqisi2
  40:.\Generated_Source\PSoC5/Status_Reg_1.c **** }
  35              		.loc 1 40 0
  36 0004 7047     		bx	lr
  37              	.L3:
  38 0006 00BF     		.align	2
  39              	.L2:
  40 0008 6A650040 		.word	1073767786
  41              		.cfi_endproc
  42              	.LFE0:
  43              		.size	Status_Reg_1_Read, .-Status_Reg_1_Read
  44              		.section	.text.Status_Reg_1_InterruptEnable,"ax",%progbits
  45              		.align	2
  46              		.global	Status_Reg_1_InterruptEnable
  47              		.thumb
  48              		.thumb_func
  49              		.type	Status_Reg_1_InterruptEnable, %function
  50              	Status_Reg_1_InterruptEnable:
  51              	.LFB1:
  41:.\Generated_Source\PSoC5/Status_Reg_1.c **** 
  42:.\Generated_Source\PSoC5/Status_Reg_1.c **** 
  43:.\Generated_Source\PSoC5/Status_Reg_1.c **** /*******************************************************************************
  44:.\Generated_Source\PSoC5/Status_Reg_1.c **** * Function Name: Status_Reg_1_InterruptEnable
  45:.\Generated_Source\PSoC5/Status_Reg_1.c **** ********************************************************************************
  46:.\Generated_Source\PSoC5/Status_Reg_1.c **** *
  47:.\Generated_Source\PSoC5/Status_Reg_1.c **** * Summary:
  48:.\Generated_Source\PSoC5/Status_Reg_1.c **** *  Enables the Status Register interrupt.
  49:.\Generated_Source\PSoC5/Status_Reg_1.c **** *
  50:.\Generated_Source\PSoC5/Status_Reg_1.c **** * Parameters:
  51:.\Generated_Source\PSoC5/Status_Reg_1.c **** *  None.
  52:.\Generated_Source\PSoC5/Status_Reg_1.c **** *
  53:.\Generated_Source\PSoC5/Status_Reg_1.c **** * Return:
  54:.\Generated_Source\PSoC5/Status_Reg_1.c **** *  None.
  55:.\Generated_Source\PSoC5/Status_Reg_1.c **** *
  56:.\Generated_Source\PSoC5/Status_Reg_1.c **** *******************************************************************************/
  57:.\Generated_Source\PSoC5/Status_Reg_1.c **** void Status_Reg_1_InterruptEnable(void) 
  58:.\Generated_Source\PSoC5/Status_Reg_1.c **** {
  52              		.loc 1 58 0
  53              		.cfi_startproc
  54              		@ args = 0, pretend = 0, frame = 0
  55              		@ frame_needed = 0, uses_anonymous_args = 0
  56 0000 08B5     		push	{r3, lr}
ARM GAS  C:\Users\doug_000\AppData\Local\Temp\ccqSZkzZ.s 			page 3


  57              		.cfi_def_cfa_offset 8
  58              		.cfi_offset 3, -8
  59              		.cfi_offset 14, -4
  59:.\Generated_Source\PSoC5/Status_Reg_1.c ****     uint8 interruptState;
  60:.\Generated_Source\PSoC5/Status_Reg_1.c ****     interruptState = CyEnterCriticalSection();
  60              		.loc 1 60 0
  61 0002 FFF7FEFF 		bl	CyEnterCriticalSection
  62              	.LVL0:
  61:.\Generated_Source\PSoC5/Status_Reg_1.c ****     Status_Reg_1_Status_Aux_Ctrl |= Status_Reg_1_STATUS_INTR_ENBL;
  63              		.loc 1 61 0
  64 0006 044A     		ldr	r2, .L6
  65 0008 1378     		ldrb	r3, [r2]	@ zero_extendqisi2
  66 000a 43F01003 		orr	r3, r3, #16
  67 000e 1370     		strb	r3, [r2]
  62:.\Generated_Source\PSoC5/Status_Reg_1.c ****     CyExitCriticalSection(interruptState);
  68              		.loc 1 62 0
  69 0010 FFF7FEFF 		bl	CyExitCriticalSection
  70              	.LVL1:
  71 0014 08BD     		pop	{r3, pc}
  72              	.L7:
  73 0016 00BF     		.align	2
  74              	.L6:
  75 0018 9A650040 		.word	1073767834
  76              		.cfi_endproc
  77              	.LFE1:
  78              		.size	Status_Reg_1_InterruptEnable, .-Status_Reg_1_InterruptEnable
  79              		.section	.text.Status_Reg_1_InterruptDisable,"ax",%progbits
  80              		.align	2
  81              		.global	Status_Reg_1_InterruptDisable
  82              		.thumb
  83              		.thumb_func
  84              		.type	Status_Reg_1_InterruptDisable, %function
  85              	Status_Reg_1_InterruptDisable:
  86              	.LFB2:
  63:.\Generated_Source\PSoC5/Status_Reg_1.c **** }
  64:.\Generated_Source\PSoC5/Status_Reg_1.c **** 
  65:.\Generated_Source\PSoC5/Status_Reg_1.c **** 
  66:.\Generated_Source\PSoC5/Status_Reg_1.c **** /*******************************************************************************
  67:.\Generated_Source\PSoC5/Status_Reg_1.c **** * Function Name: Status_Reg_1_InterruptDisable
  68:.\Generated_Source\PSoC5/Status_Reg_1.c **** ********************************************************************************
  69:.\Generated_Source\PSoC5/Status_Reg_1.c **** *
  70:.\Generated_Source\PSoC5/Status_Reg_1.c **** * Summary:
  71:.\Generated_Source\PSoC5/Status_Reg_1.c **** *  Disables the Status Register interrupt.
  72:.\Generated_Source\PSoC5/Status_Reg_1.c **** *
  73:.\Generated_Source\PSoC5/Status_Reg_1.c **** * Parameters:
  74:.\Generated_Source\PSoC5/Status_Reg_1.c **** *  None.
  75:.\Generated_Source\PSoC5/Status_Reg_1.c **** *
  76:.\Generated_Source\PSoC5/Status_Reg_1.c **** * Return:
  77:.\Generated_Source\PSoC5/Status_Reg_1.c **** *  None.
  78:.\Generated_Source\PSoC5/Status_Reg_1.c **** *
  79:.\Generated_Source\PSoC5/Status_Reg_1.c **** *******************************************************************************/
  80:.\Generated_Source\PSoC5/Status_Reg_1.c **** void Status_Reg_1_InterruptDisable(void) 
  81:.\Generated_Source\PSoC5/Status_Reg_1.c **** {
  87              		.loc 1 81 0
  88              		.cfi_startproc
  89              		@ args = 0, pretend = 0, frame = 0
  90              		@ frame_needed = 0, uses_anonymous_args = 0
ARM GAS  C:\Users\doug_000\AppData\Local\Temp\ccqSZkzZ.s 			page 4


  91 0000 08B5     		push	{r3, lr}
  92              		.cfi_def_cfa_offset 8
  93              		.cfi_offset 3, -8
  94              		.cfi_offset 14, -4
  82:.\Generated_Source\PSoC5/Status_Reg_1.c ****     uint8 interruptState;
  83:.\Generated_Source\PSoC5/Status_Reg_1.c ****     interruptState = CyEnterCriticalSection();
  95              		.loc 1 83 0
  96 0002 FFF7FEFF 		bl	CyEnterCriticalSection
  97              	.LVL2:
  84:.\Generated_Source\PSoC5/Status_Reg_1.c ****     Status_Reg_1_Status_Aux_Ctrl &= (uint8)(~Status_Reg_1_STATUS_INTR_ENBL);
  98              		.loc 1 84 0
  99 0006 044A     		ldr	r2, .L10
 100 0008 1378     		ldrb	r3, [r2]	@ zero_extendqisi2
 101 000a 03F0EF03 		and	r3, r3, #239
 102 000e 1370     		strb	r3, [r2]
  85:.\Generated_Source\PSoC5/Status_Reg_1.c ****     CyExitCriticalSection(interruptState);
 103              		.loc 1 85 0
 104 0010 FFF7FEFF 		bl	CyExitCriticalSection
 105              	.LVL3:
 106 0014 08BD     		pop	{r3, pc}
 107              	.L11:
 108 0016 00BF     		.align	2
 109              	.L10:
 110 0018 9A650040 		.word	1073767834
 111              		.cfi_endproc
 112              	.LFE2:
 113              		.size	Status_Reg_1_InterruptDisable, .-Status_Reg_1_InterruptDisable
 114              		.section	.text.Status_Reg_1_WriteMask,"ax",%progbits
 115              		.align	2
 116              		.global	Status_Reg_1_WriteMask
 117              		.thumb
 118              		.thumb_func
 119              		.type	Status_Reg_1_WriteMask, %function
 120              	Status_Reg_1_WriteMask:
 121              	.LFB3:
  86:.\Generated_Source\PSoC5/Status_Reg_1.c **** }
  87:.\Generated_Source\PSoC5/Status_Reg_1.c **** 
  88:.\Generated_Source\PSoC5/Status_Reg_1.c **** 
  89:.\Generated_Source\PSoC5/Status_Reg_1.c **** /*******************************************************************************
  90:.\Generated_Source\PSoC5/Status_Reg_1.c **** * Function Name: Status_Reg_1_WriteMask
  91:.\Generated_Source\PSoC5/Status_Reg_1.c **** ********************************************************************************
  92:.\Generated_Source\PSoC5/Status_Reg_1.c **** *
  93:.\Generated_Source\PSoC5/Status_Reg_1.c **** * Summary:
  94:.\Generated_Source\PSoC5/Status_Reg_1.c **** *  Writes the current mask value assigned to the Status Register.
  95:.\Generated_Source\PSoC5/Status_Reg_1.c **** *
  96:.\Generated_Source\PSoC5/Status_Reg_1.c **** * Parameters:
  97:.\Generated_Source\PSoC5/Status_Reg_1.c **** *  mask:  Value to write into the mask register.
  98:.\Generated_Source\PSoC5/Status_Reg_1.c **** *
  99:.\Generated_Source\PSoC5/Status_Reg_1.c **** * Return:
 100:.\Generated_Source\PSoC5/Status_Reg_1.c **** *  None.
 101:.\Generated_Source\PSoC5/Status_Reg_1.c **** *
 102:.\Generated_Source\PSoC5/Status_Reg_1.c **** *******************************************************************************/
 103:.\Generated_Source\PSoC5/Status_Reg_1.c **** void Status_Reg_1_WriteMask(uint8 mask) 
 104:.\Generated_Source\PSoC5/Status_Reg_1.c **** {
 122              		.loc 1 104 0
 123              		.cfi_startproc
 124              		@ args = 0, pretend = 0, frame = 0
ARM GAS  C:\Users\doug_000\AppData\Local\Temp\ccqSZkzZ.s 			page 5


 125              		@ frame_needed = 0, uses_anonymous_args = 0
 126              		@ link register save eliminated.
 127              	.LVL4:
 105:.\Generated_Source\PSoC5/Status_Reg_1.c ****     #if(Status_Reg_1_INPUTS < 8u)
 106:.\Generated_Source\PSoC5/Status_Reg_1.c ****     	mask &= ((uint8)(1u << Status_Reg_1_INPUTS) - 1u);
 128              		.loc 1 106 0
 129 0000 00F00100 		and	r0, r0, #1
 130              	.LVL5:
 107:.\Generated_Source\PSoC5/Status_Reg_1.c **** 	#endif /* End Status_Reg_1_INPUTS < 8u */
 108:.\Generated_Source\PSoC5/Status_Reg_1.c ****     Status_Reg_1_Status_Mask = mask;
 131              		.loc 1 108 0
 132 0004 014B     		ldr	r3, .L13
 133 0006 1870     		strb	r0, [r3]
 134 0008 7047     		bx	lr
 135              	.L14:
 136 000a 00BF     		.align	2
 137              	.L13:
 138 000c 8A650040 		.word	1073767818
 139              		.cfi_endproc
 140              	.LFE3:
 141              		.size	Status_Reg_1_WriteMask, .-Status_Reg_1_WriteMask
 142              		.section	.text.Status_Reg_1_ReadMask,"ax",%progbits
 143              		.align	2
 144              		.global	Status_Reg_1_ReadMask
 145              		.thumb
 146              		.thumb_func
 147              		.type	Status_Reg_1_ReadMask, %function
 148              	Status_Reg_1_ReadMask:
 149              	.LFB4:
 109:.\Generated_Source\PSoC5/Status_Reg_1.c **** }
 110:.\Generated_Source\PSoC5/Status_Reg_1.c **** 
 111:.\Generated_Source\PSoC5/Status_Reg_1.c **** 
 112:.\Generated_Source\PSoC5/Status_Reg_1.c **** /*******************************************************************************
 113:.\Generated_Source\PSoC5/Status_Reg_1.c **** * Function Name: Status_Reg_1_ReadMask
 114:.\Generated_Source\PSoC5/Status_Reg_1.c **** ********************************************************************************
 115:.\Generated_Source\PSoC5/Status_Reg_1.c **** *
 116:.\Generated_Source\PSoC5/Status_Reg_1.c **** * Summary:
 117:.\Generated_Source\PSoC5/Status_Reg_1.c **** *  Reads the current interrupt mask assigned to the Status Register.
 118:.\Generated_Source\PSoC5/Status_Reg_1.c **** *
 119:.\Generated_Source\PSoC5/Status_Reg_1.c **** * Parameters:
 120:.\Generated_Source\PSoC5/Status_Reg_1.c **** *  None.
 121:.\Generated_Source\PSoC5/Status_Reg_1.c **** *
 122:.\Generated_Source\PSoC5/Status_Reg_1.c **** * Return:
 123:.\Generated_Source\PSoC5/Status_Reg_1.c **** *  The value of the interrupt mask of the Status Register.
 124:.\Generated_Source\PSoC5/Status_Reg_1.c **** *
 125:.\Generated_Source\PSoC5/Status_Reg_1.c **** *******************************************************************************/
 126:.\Generated_Source\PSoC5/Status_Reg_1.c **** uint8 Status_Reg_1_ReadMask(void) 
 127:.\Generated_Source\PSoC5/Status_Reg_1.c **** {
 150              		.loc 1 127 0
 151              		.cfi_startproc
 152              		@ args = 0, pretend = 0, frame = 0
 153              		@ frame_needed = 0, uses_anonymous_args = 0
 154              		@ link register save eliminated.
 128:.\Generated_Source\PSoC5/Status_Reg_1.c ****     return Status_Reg_1_Status_Mask;
 155              		.loc 1 128 0
 156 0000 014B     		ldr	r3, .L16
 157 0002 1878     		ldrb	r0, [r3]	@ zero_extendqisi2
ARM GAS  C:\Users\doug_000\AppData\Local\Temp\ccqSZkzZ.s 			page 6


 129:.\Generated_Source\PSoC5/Status_Reg_1.c **** }
 158              		.loc 1 129 0
 159 0004 7047     		bx	lr
 160              	.L17:
 161 0006 00BF     		.align	2
 162              	.L16:
 163 0008 8A650040 		.word	1073767818
 164              		.cfi_endproc
 165              	.LFE4:
 166              		.size	Status_Reg_1_ReadMask, .-Status_Reg_1_ReadMask
 167              		.text
 168              	.Letext0:
 169              		.file 2 ".\\Generated_Source\\PSoC5\\cytypes.h"
 170              		.file 3 ".\\Generated_Source\\PSoC5\\CyLib.h"